Component: ARM Compiler 5.06 update 1 (build 61) Tool: armlink [4d35a8]

==============================================================================

Section Cross References

    main.o(i.TCP_Client_Init) refers to tcp.o(i.tcp_new) for tcp_new
    main.o(i.TCP_Client_Init) refers to tcp.o(i.tcp_bind) for tcp_bind
    main.o(i.TCP_Client_Init) refers to tcp.o(i.tcp_connect) for tcp_connect
    main.o(i.TCP_Client_Init) refers to ip_addr.o(.constdata) for ip_addr_any
    main.o(i.TCP_Client_Init) refers to main.o(i.TcpCli_Connected) for TcpCli_Connected
    main.o(i.TcpCli_Connected) refers to tcp_out.o(i.tcp_write) for tcp_write
    main.o(i.TcpCli_Connected) refers to tcp.o(i.tcp_close) for tcp_close
    main.o(i.TcpCli_Connected) refers to main.o(.constdata) for TCP_TestData
    main.o(i.linkStatusCB) refers to main.o(.data) for LED1_flag
    main.o(i.main) refers to delay.o(i.delay_init) for delay_init
    main.o(i.main) refers to nvic.o(i.NVIC_Configuration) for NVIC_Configuration
    main.o(i.main) refers to usart1.o(i.usart1_init) for usart1_init
    main.o(i.main) refers to usart2.o(i.usart2_init) for usart2_init
    main.o(i.main) refers to led.o(i.LED_Init) for LED_Init
    main.o(i.main) refers to key.o(i.KEY_Init) for KEY_Init
    main.o(i.main) refers to nvic.o(i.EXIT_init) for EXIT_init
    main.o(i.main) refers to timer.o(i.TIM3_Int_Init) for TIM3_Int_Init
    main.o(i.main) refers to timer.o(i.TIM4_Init) for TIM4_Init
    main.o(i.main) refers to timer.o(i.TIM4_Set) for TIM4_Set
    main.o(i.main) refers to stm32f10x_exti.o(i.EXTI_ClearITPendingBit) for EXTI_ClearITPendingBit
    main.o(i.main) refers to init.o(i.lwip_init) for lwip_init
    main.o(i.main) refers to ppp.o(i.pppInit) for pppInit
    main.o(i.main) refers to key.o(i.KEY_Scan) for KEY_Scan
    main.o(i.main) refers to delay.o(i.delay_ms) for delay_ms
    main.o(i.main) refers to strlen.o(.text) for strlen
    main.o(i.main) refers to usart2.o(i.USART2_SEND) for USART2_SEND
    main.o(i.main) refers to ppp.o(i.pppSetAuth) for pppSetAuth
    main.o(i.main) refers to ppp.o(i.pppOverSerialOpen) for pppOverSerialOpen
    main.o(i.main) refers to main.o(i.TCP_Client_Init) for TCP_Client_Init
    main.o(i.main) refers to usart1.o(.data) for USART1_RX_STA
    main.o(i.main) refers to usart2.o(.data) for USART2_RX_STA
    main.o(i.main) refers to main.o(.data) for AT_AT
    main.o(i.main) refers to main.o(i.linkStatusCB) for linkStatusCB
    led.o(i.LED_Init) refers to stm32f10x_rcc.o(i.RCC_APB2PeriphClockCmd) for RCC_APB2PeriphClockCmd
    led.o(i.LED_Init) refers to stm32f10x_gpio.o(i.GPIO_Init) for GPIO_Init
    led.o(i.LED_Init) refers to stm32f10x_gpio.o(i.GPIO_SetBits) for GPIO_SetBits
    nvic.o(i.EXIT_init) refers to stm32f10x_exti.o(i.EXTI_Init) for EXTI_Init
    nvic.o(i.EXIT_init) refers to misc.o(i.NVIC_Init) for NVIC_Init
    nvic.o(i.EXTI1_IRQHandler) refers to stm32f10x_exti.o(i.EXTI_GetITStatus) for EXTI_GetITStatus
    nvic.o(i.EXTI1_IRQHandler) refers to stm32f10x_exti.o(i.EXTI_ClearITPendingBit) for EXTI_ClearITPendingBit
    nvic.o(i.EXTI1_IRQHandler) refers to usart2.o(.bss) for USART2_RX_BUF
    nvic.o(i.EXTI1_IRQHandler) refers to usart1.o(.data) for p_usart1_send_data
    nvic.o(i.EXTI1_IRQHandler) refers to usart2.o(.data) for USART2_RX_STA
    nvic.o(i.EXTI3_IRQHandler) refers to stm32f10x_exti.o(i.EXTI_GetITStatus) for EXTI_GetITStatus
    nvic.o(i.EXTI3_IRQHandler) refers to stm32f10x_exti.o(i.EXTI_ClearITPendingBit) for EXTI_ClearITPendingBit
    nvic.o(i.EXTI4_IRQHandler) refers to stm32f10x_exti.o(i.EXTI_GetITStatus) for EXTI_GetITStatus
    nvic.o(i.EXTI4_IRQHandler) refers to stm32f10x_exti.o(i.EXTI_ClearITPendingBit) for EXTI_ClearITPendingBit
    nvic.o(i.EXTI4_IRQHandler) refers to ppp.o(i.pppos_input) for pppos_input
    nvic.o(i.EXTI4_IRQHandler) refers to usart2.o(.data) for USART2_RX_STA_BACKUP
    nvic.o(i.EXTI4_IRQHandler) refers to usart2.o(.bss) for USART2_RX_BUF
    nvic.o(i.EXTI4_IRQHandler) refers to main.o(.data) for pd
    nvic.o(i.NVIC_Configuration) refers to misc.o(i.NVIC_PriorityGroupConfig) for NVIC_PriorityGroupConfig
    timer.o(i.TIM2_Init) refers to misc.o(i.NVIC_Init) for NVIC_Init
    timer.o(i.TIM3_IRQHandler) refers to stm32f10x_tim.o(i.TIM_GetITStatus) for TIM_GetITStatus
    timer.o(i.TIM3_IRQHandler) refers to stm32f10x_tim.o(i.TIM_ClearITPendingBit) for TIM_ClearITPendingBit
    timer.o(i.TIM3_IRQHandler) refers to timer.o(.data) for lwip_time
    timer.o(i.TIM3_IRQHandler) refers to main.o(.data) for LED1_flag
    timer.o(i.TIM3_Int_Init) refers to stm32f10x_rcc.o(i.RCC_APB1PeriphClockCmd) for RCC_APB1PeriphClockCmd
    timer.o(i.TIM3_Int_Init) refers to stm32f10x_tim.o(i.TIM_TimeBaseInit) for TIM_TimeBaseInit
    timer.o(i.TIM3_Int_Init) refers to stm32f10x_tim.o(i.TIM_ITConfig) for TIM_ITConfig
    timer.o(i.TIM3_Int_Init) refers to misc.o(i.NVIC_Init) for NVIC_Init
    timer.o(i.TIM3_Int_Init) refers to stm32f10x_tim.o(i.TIM_Cmd) for TIM_Cmd
    timer.o(i.TIM4_IRQHandler) refers to timer.o(i.TIM4_Set) for TIM4_Set
    timer.o(i.TIM4_IRQHandler) refers to stm32f10x_exti.o(i.EXTI_GenerateSWInterrupt) for EXTI_GenerateSWInterrupt
    timer.o(i.TIM4_IRQHandler) refers to usart2.o(.data) for USART2_RX_STA
    timer.o(i.TIM4_IRQHandler) refers to timer.o(.data) for len
    timer.o(i.TIM4_IRQHandler) refers to usart2.o(.bss) for USART2_RX_BUF
    timer.o(i.TIM4_IRQHandler) refers to main.o(.data) for usart2_flag
    timer.o(i.TIM4_Init) refers to misc.o(i.NVIC_Init) for NVIC_Init
    usart1.o(i.usart1_init) refers to stm32f10x_rcc.o(i.RCC_APB2PeriphClockCmd) for RCC_APB2PeriphClockCmd
    usart1.o(i.usart1_init) refers to stm32f10x_usart.o(i.USART_DeInit) for USART_DeInit
    usart1.o(i.usart1_init) refers to stm32f10x_gpio.o(i.GPIO_Init) for GPIO_Init
    usart1.o(i.usart1_init) refers to misc.o(i.NVIC_Init) for NVIC_Init
    usart1.o(i.usart1_init) refers to stm32f10x_usart.o(i.USART_Init) for USART_Init
    usart1.o(i.usart1_init) refers to stm32f10x_usart.o(i.USART_ITConfig) for USART_ITConfig
    usart1.o(i.usart1_init) refers to stm32f10x_usart.o(i.USART_Cmd) for USART_Cmd
    usart2.o(i.USART2_IRQHandler) refers to timer.o(i.TIM4_Set) for TIM4_Set
    usart2.o(i.USART2_IRQHandler) refers to usart2.o(.data) for USART2_RX_STA
    usart2.o(i.USART2_IRQHandler) refers to usart2.o(.bss) for USART2_RX_BUF
    usart2.o(i.usart2_init) refers to stm32f10x_rcc.o(i.RCC_APB1PeriphClockCmd) for RCC_APB1PeriphClockCmd
    usart2.o(i.usart2_init) refers to stm32f10x_usart.o(i.USART_DeInit) for USART_DeInit
    usart2.o(i.usart2_init) refers to stm32f10x_gpio.o(i.GPIO_Init) for GPIO_Init
    usart2.o(i.usart2_init) refers to misc.o(i.NVIC_Init) for NVIC_Init
    usart2.o(i.usart2_init) refers to stm32f10x_usart.o(i.USART_Init) for USART_Init
    usart2.o(i.usart2_init) refers to stm32f10x_usart.o(i.USART_ITConfig) for USART_ITConfig
    usart2.o(i.usart2_init) refers to stm32f10x_usart.o(i.USART_Cmd) for USART_Cmd
    key.o(i.KEY_Scan) refers to delay.o(i.delay_ms) for delay_ms
    key.o(i.KEY_Scan) refers to key.o(.data) for key_up
    delay.o(i.delay_init) refers to delay.o(.data) for fac_us
    delay.o(i.delay_ms) refers to delay.o(.data) for fac_ms
    delay.o(i.delay_us) refers to delay.o(.data) for fac_us
    sys1.o(i.MYRCC_DeInit) refers to sys1.o(i.MY_NVIC_SetVectorTable) for MY_NVIC_SetVectorTable
    sys1.o(i.MY_NVIC_Init) refers to sys1.o(i.MY_NVIC_PriorityGroupConfig) for MY_NVIC_PriorityGroupConfig
    sys1.o(i.Stm32_Clock_Init) refers to sys1.o(i.MYRCC_DeInit) for MYRCC_DeInit
    sys1.o(i.Sys_Standby) refers to sys1.o(.emb_text) for WFI_SET
    auth.o(i.auth_ip_addr) refers to auth.o(i.ip_addr_check) for ip_addr_check
    auth.o(i.auth_ip_addr) refers to auth.o(.data) for addresses
    auth.o(i.auth_peer_fail) refers to lcp.o(i.lcp_close) for lcp_close
    auth.o(i.auth_peer_success) refers to memcpya.o(.text) for __aeabi_memcpy
    auth.o(i.auth_peer_success) refers to auth.o(i.network_phase) for network_phase
    auth.o(i.auth_peer_success) refers to auth.o(.bss) for peer_authname
    auth.o(i.auth_peer_success) refers to auth.o(.data) for auth_pending
    auth.o(i.auth_reset) refers to auth.o(i.get_pap_passwd) for get_pap_passwd
    auth.o(i.auth_reset) refers to auth.o(i.have_pap_secret) for have_pap_secret
    auth.o(i.auth_reset) refers to auth.o(i.have_chap_secret) for have_chap_secret
    auth.o(i.auth_reset) refers to lcp.o(.bss) for lcp_gotoptions
    auth.o(i.auth_reset) refers to ipcp.o(.bss) for ipcp_wantoptions
    auth.o(i.auth_reset) refers to ppp.o(.bss) for ppp_settings
    auth.o(i.auth_withpeer_fail) refers to memseta.o(.text) for __aeabi_memclr
    auth.o(i.auth_withpeer_fail) refers to ppp.o(i.pppIOCtl) for pppIOCtl
    auth.o(i.auth_withpeer_fail) refers to lcp.o(i.lcp_close) for lcp_close
    auth.o(i.auth_withpeer_fail) refers to auth.o(.data) for passwd_from_file
    auth.o(i.auth_withpeer_fail) refers to ppp.o(.bss) for ppp_settings
    auth.o(i.auth_withpeer_success) refers to memseta.o(.text) for __aeabi_memclr
    auth.o(i.auth_withpeer_success) refers to auth.o(i.network_phase) for network_phase
    auth.o(i.auth_withpeer_success) refers to auth.o(.data) for passwd_from_file
    auth.o(i.auth_withpeer_success) refers to ppp.o(.bss) for ppp_settings
    auth.o(i.bad_ip_adrs) refers to def.o(i.lwip_ntohl) for lwip_ntohl
    auth.o(i.check_idle) refers to ppp.o(i.get_idle_time) for get_idle_time
    auth.o(i.check_idle) refers to lcp.o(i.lcp_close) for lcp_close
    auth.o(i.check_idle) refers to timers.o(i.sys_untimeout) for sys_untimeout
    auth.o(i.check_idle) refers to timers.o(i.sys_timeout) for sys_timeout
    auth.o(i.check_idle) refers to ppp.o(.bss) for ppp_settings
    auth.o(i.connect_time_expired) refers to lcp.o(i.lcp_close) for lcp_close
    auth.o(i.get_pap_passwd) refers to strcpy.o(.text) for strcpy
    auth.o(i.get_secret) refers to strcmp.o(.text) for strcmp
    auth.o(i.get_secret) refers to strlen.o(.text) for strlen
    auth.o(i.get_secret) refers to memcpya.o(.text) for __aeabi_memcpy
    auth.o(i.get_secret) refers to ppp.o(.bss) for ppp_settings
    auth.o(i.ip_addr_check) refers to auth.o(i.bad_ip_adrs) for bad_ip_adrs
    auth.o(i.ip_addr_check) refers to ppp.o(.bss) for ppp_settings
    auth.o(i.link_down) refers to ppp.o(i.pppLinkDown) for pppLinkDown
    auth.o(i.link_down) refers to auth.o(.data) for did_authup
    auth.o(i.link_down) refers to ppp.o(.data) for ppp_protocols
    auth.o(i.link_down) refers to lcp.o(.data) for lcp_phase
    auth.o(i.link_established) refers to auth.o(i.null_login) for null_login
    auth.o(i.link_established) refers to lcp.o(i.lcp_close) for lcp_close
    auth.o(i.link_established) refers to chap.o(i.ChapAuthPeer) for ChapAuthPeer
    auth.o(i.link_established) refers to pap.o(i.upap_authpeer) for upap_authpeer
    auth.o(i.link_established) refers to chap.o(i.ChapAuthWithPeer) for ChapAuthWithPeer
    auth.o(i.link_established) refers to auth.o(i.get_pap_passwd) for get_pap_passwd
    auth.o(i.link_established) refers to pap.o(i.upap_authwithpeer) for upap_authwithpeer
    auth.o(i.link_established) refers to auth.o(i.network_phase) for network_phase
    auth.o(i.link_established) refers to lcp.o(.bss) for lcp_wantoptions
    auth.o(i.link_established) refers to ppp.o(.data) for ppp_protocols
    auth.o(i.link_established) refers to ppp.o(.bss) for ppp_settings
    auth.o(i.link_established) refers to lcp.o(.data) for lcp_phase
    auth.o(i.link_established) refers to auth.o(.data) for passwd_from_file
    auth.o(i.link_terminated) refers to auth.o(i.plogout) for plogout
    auth.o(i.link_terminated) refers to ppp.o(i.pppLinkTerminated) for pppLinkTerminated
    auth.o(i.link_terminated) refers to lcp.o(.data) for lcp_phase
    auth.o(i.link_terminated) refers to auth.o(.data) for logged_in
    auth.o(i.network_phase) refers to lcp.o(i.lcp_close) for lcp_close
    auth.o(i.network_phase) refers to lcp.o(.bss) for lcp_gotoptions
    auth.o(i.network_phase) refers to auth.o(.data) for did_authup
    auth.o(i.network_phase) refers to lcp.o(.data) for lcp_phase
    auth.o(i.network_phase) refers to ppp.o(.data) for ppp_protocols
    auth.o(i.np_down) refers to timers.o(i.sys_untimeout) for sys_untimeout
    auth.o(i.np_down) refers to auth.o(.data) for num_np_up
    auth.o(i.np_down) refers to ppp.o(.bss) for ppp_settings
    auth.o(i.np_down) refers to auth.o(i.check_idle) for check_idle
    auth.o(i.np_finished) refers to lcp.o(i.lcp_close) for lcp_close
    auth.o(i.np_finished) refers to auth.o(.data) for num_np_open
    auth.o(i.np_up) refers to timers.o(i.sys_untimeout) for sys_untimeout
    auth.o(i.np_up) refers to timers.o(i.sys_timeout) for sys_timeout
    auth.o(i.np_up) refers to auth.o(.data) for num_np_up
    auth.o(i.np_up) refers to ppp.o(.bss) for ppp_settings
    auth.o(i.np_up) refers to auth.o(i.check_idle) for check_idle
    auth.o(i.np_up) refers to auth.o(i.connect_time_expired) for connect_time_expired
    auth.o(i.plogout) refers to auth.o(.data) for logged_in
    chap.o(i.ChapAuthPeer) refers to chap.o(i.ChapGenChallenge) for ChapGenChallenge
    chap.o(i.ChapAuthPeer) refers to chap.o(i.ChapSendChallenge) for ChapSendChallenge
    chap.o(i.ChapAuthPeer) refers to chap.o(.bss) for chap
    chap.o(i.ChapAuthWithPeer) refers to chap.o(.bss) for chap
    chap.o(i.ChapChallengeTimeout) refers to auth.o(i.auth_peer_fail) for auth_peer_fail
    chap.o(i.ChapChallengeTimeout) refers to chap.o(i.ChapSendChallenge) for ChapSendChallenge
    chap.o(i.ChapGenChallenge) refers to magic.o(i.magic) for magic
    chap.o(i.ChapGenChallenge) refers to printf3.o(i.__0printf$3) for __2printf
    chap.o(i.ChapInit) refers to memseta.o(.text) for __aeabi_memclr4
    chap.o(i.ChapInit) refers to chap.o(.bss) for chap
    chap.o(i.ChapInput) refers to chap.o(i.ChapReceiveChallenge) for ChapReceiveChallenge
    chap.o(i.ChapInput) refers to chap.o(i.ChapReceiveResponse) for ChapReceiveResponse
    chap.o(i.ChapInput) refers to chap.o(i.ChapReceiveFailure) for ChapReceiveFailure
    chap.o(i.ChapInput) refers to chap.o(i.ChapReceiveSuccess) for ChapReceiveSuccess
    chap.o(i.ChapInput) refers to chap.o(.bss) for chap
    chap.o(i.ChapLowerDown) refers to timers.o(i.sys_untimeout) for sys_untimeout
    chap.o(i.ChapLowerDown) refers to chap.o(.bss) for chap
    chap.o(i.ChapLowerDown) refers to chap.o(i.ChapChallengeTimeout) for ChapChallengeTimeout
    chap.o(i.ChapLowerDown) refers to chap.o(i.ChapRechallenge) for ChapRechallenge
    chap.o(i.ChapLowerDown) refers to chap.o(i.ChapResponseTimeout) for ChapResponseTimeout
    chap.o(i.ChapLowerUp) refers to chap.o(i.ChapGenChallenge) for ChapGenChallenge
    chap.o(i.ChapLowerUp) refers to chap.o(i.ChapSendChallenge) for ChapSendChallenge
    chap.o(i.ChapLowerUp) refers to chap.o(.bss) for chap
    chap.o(i.ChapProtocolReject) refers to auth.o(i.auth_peer_fail) for auth_peer_fail
    chap.o(i.ChapProtocolReject) refers to auth.o(i.auth_withpeer_fail) for auth_withpeer_fail
    chap.o(i.ChapProtocolReject) refers to chap.o(i.ChapLowerDown) for ChapLowerDown
    chap.o(i.ChapProtocolReject) refers to chap.o(.bss) for chap
    chap.o(i.ChapReceiveChallenge) refers to memcpya.o(.text) for __aeabi_memcpy
    chap.o(i.ChapReceiveChallenge) refers to strncpy.o(.text) for strncpy
    chap.o(i.ChapReceiveChallenge) refers to auth.o(i.get_secret) for get_secret
    chap.o(i.ChapReceiveChallenge) refers to timers.o(i.sys_untimeout) for sys_untimeout
    chap.o(i.ChapReceiveChallenge) refers to md5.o(i.MD5Init) for MD5Init
    chap.o(i.ChapReceiveChallenge) refers to md5.o(i.MD5Update) for MD5Update
    chap.o(i.ChapReceiveChallenge) refers to md5.o(i.MD5Final) for MD5Final
    chap.o(i.ChapReceiveChallenge) refers to memseta.o(.text) for __aeabi_memclr4
    chap.o(i.ChapReceiveChallenge) refers to chap.o(i.ChapSendResponse) for ChapSendResponse
    chap.o(i.ChapReceiveChallenge) refers to ppp.o(.bss) for ppp_settings
    chap.o(i.ChapReceiveChallenge) refers to chap.o(i.ChapResponseTimeout) for ChapResponseTimeout
    chap.o(i.ChapReceiveFailure) refers to timers.o(i.sys_untimeout) for sys_untimeout
    chap.o(i.ChapReceiveFailure) refers to auth.o(i.auth_withpeer_fail) for auth_withpeer_fail
    chap.o(i.ChapReceiveFailure) refers to chap.o(i.ChapResponseTimeout) for ChapResponseTimeout
    chap.o(i.ChapReceiveResponse) refers to chap.o(i.ChapSendStatus) for ChapSendStatus
    chap.o(i.ChapReceiveResponse) refers to timers.o(i.sys_untimeout) for sys_untimeout
    chap.o(i.ChapReceiveResponse) refers to memcpya.o(.text) for __aeabi_memcpy
    chap.o(i.ChapReceiveResponse) refers to auth.o(i.get_secret) for get_secret
    chap.o(i.ChapReceiveResponse) refers to md5.o(i.MD5Init) for MD5Init
    chap.o(i.ChapReceiveResponse) refers to md5.o(i.MD5Update) for MD5Update
    chap.o(i.ChapReceiveResponse) refers to md5.o(i.MD5Final) for MD5Final
    chap.o(i.ChapReceiveResponse) refers to memcmp.o(.text) for memcmp
    chap.o(i.ChapReceiveResponse) refers to memseta.o(.text) for __aeabi_memclr4
    chap.o(i.ChapReceiveResponse) refers to auth.o(i.auth_peer_success) for auth_peer_success
    chap.o(i.ChapReceiveResponse) refers to timers.o(i.sys_timeout) for sys_timeout
    chap.o(i.ChapReceiveResponse) refers to auth.o(i.auth_peer_fail) for auth_peer_fail
    chap.o(i.ChapReceiveResponse) refers to chap.o(i.ChapChallengeTimeout) for ChapChallengeTimeout
    chap.o(i.ChapReceiveResponse) refers to chap.o(i.ChapRechallenge) for ChapRechallenge
    chap.o(i.ChapReceiveSuccess) refers to timers.o(i.sys_untimeout) for sys_untimeout
    chap.o(i.ChapReceiveSuccess) refers to auth.o(i.auth_withpeer_success) for auth_withpeer_success
    chap.o(i.ChapReceiveSuccess) refers to chap.o(i.ChapResponseTimeout) for ChapResponseTimeout
    chap.o(i.ChapRechallenge) refers to chap.o(i.ChapGenChallenge) for ChapGenChallenge
    chap.o(i.ChapRechallenge) refers to chap.o(i.ChapSendChallenge) for ChapSendChallenge
    chap.o(i.ChapResponseTimeout) refers to chap.o(i.ChapSendResponse) for ChapSendResponse
    chap.o(i.ChapSendChallenge) refers to strlen.o(.text) for strlen
    chap.o(i.ChapSendChallenge) refers to memcpya.o(.text) for __aeabi_memcpy
    chap.o(i.ChapSendChallenge) refers to ppp.o(i.pppWrite) for pppWrite
    chap.o(i.ChapSendChallenge) refers to timers.o(i.sys_untimeout) for sys_untimeout
    chap.o(i.ChapSendChallenge) refers to timers.o(i.sys_timeout) for sys_timeout
    chap.o(i.ChapSendChallenge) refers to ppp.o(.bss) for outpacket_buf
    chap.o(i.ChapSendChallenge) refers to chap.o(i.ChapChallengeTimeout) for ChapChallengeTimeout
    chap.o(i.ChapSendResponse) refers to strlen.o(.text) for strlen
    chap.o(i.ChapSendResponse) refers to memcpya.o(.text) for __aeabi_memcpy
    chap.o(i.ChapSendResponse) refers to ppp.o(i.pppWrite) for pppWrite
    chap.o(i.ChapSendResponse) refers to timers.o(i.sys_untimeout) for sys_untimeout
    chap.o(i.ChapSendResponse) refers to timers.o(i.sys_timeout) for sys_timeout
    chap.o(i.ChapSendResponse) refers to ppp.o(.bss) for outpacket_buf
    chap.o(i.ChapSendResponse) refers to chap.o(i.ChapResponseTimeout) for ChapResponseTimeout
    chap.o(i.ChapSendStatus) refers to strcpy.o(.text) for strcpy
    chap.o(i.ChapSendStatus) refers to strlen.o(.text) for strlen
    chap.o(i.ChapSendStatus) refers to memcpya.o(.text) for __aeabi_memcpy
    chap.o(i.ChapSendStatus) refers to ppp.o(i.pppWrite) for pppWrite
    chap.o(i.ChapSendStatus) refers to ppp.o(.bss) for outpacket_buf
    chap.o(.data) refers to chap.o(i.ChapInit) for ChapInit
    chap.o(.data) refers to chap.o(i.ChapInput) for ChapInput
    chap.o(.data) refers to chap.o(i.ChapProtocolReject) for ChapProtocolReject
    chap.o(.data) refers to chap.o(i.ChapLowerUp) for ChapLowerUp
    chap.o(.data) refers to chap.o(i.ChapLowerDown) for ChapLowerDown
    chap.o(.data) refers to chap.o(.conststring) for .conststring
    fsm.o(i.fsm_close) refers to strlen.o(.text) for strlen
    fsm.o(i.fsm_close) refers to timers.o(i.sys_untimeout) for sys_untimeout
    fsm.o(i.fsm_close) refers to fsm.o(i.fsm_sdata) for fsm_sdata
    fsm.o(i.fsm_close) refers to timers.o(i.sys_timeout) for sys_timeout
    fsm.o(i.fsm_close) refers to fsm.o(i.fsm_timeout) for fsm_timeout
    fsm.o(i.fsm_input) refers to fsm.o(i.fsm_rconfreq) for fsm_rconfreq
    fsm.o(i.fsm_input) refers to fsm.o(i.fsm_rconfack) for fsm_rconfack
    fsm.o(i.fsm_input) refers to fsm.o(i.fsm_rconfnakrej) for fsm_rconfnakrej
    fsm.o(i.fsm_input) refers to fsm.o(i.fsm_rtermreq) for fsm_rtermreq
    fsm.o(i.fsm_input) refers to fsm.o(i.fsm_rtermack) for fsm_rtermack
    fsm.o(i.fsm_input) refers to fsm.o(i.fsm_rcoderej) for fsm_rcoderej
    fsm.o(i.fsm_input) refers to fsm.o(i.fsm_sdata) for fsm_sdata
    fsm.o(i.fsm_lowerdown) refers to timers.o(i.sys_untimeout) for sys_untimeout
    fsm.o(i.fsm_lowerdown) refers to fsm.o(i.fsm_timeout) for fsm_timeout
    fsm.o(i.fsm_lowerup) refers to fsm.o(i.fsm_sconfreq) for fsm_sconfreq
    fsm.o(i.fsm_open) refers to fsm.o(i.fsm_sconfreq) for fsm_sconfreq
    fsm.o(i.fsm_open) refers to fsm.o(i.fsm_lowerdown) for fsm_lowerdown
    fsm.o(i.fsm_open) refers to fsm.o(i.fsm_lowerup) for fsm_lowerup
    fsm.o(i.fsm_protreject) refers to timers.o(i.sys_untimeout) for sys_untimeout
    fsm.o(i.fsm_protreject) refers to fsm.o(i.fsm_sdata) for fsm_sdata
    fsm.o(i.fsm_protreject) refers to timers.o(i.sys_timeout) for sys_timeout
    fsm.o(i.fsm_protreject) refers to fsm.o(i.fsm_timeout) for fsm_timeout
    fsm.o(i.fsm_rconfack) refers to fsm.o(i.fsm_sdata) for fsm_sdata
    fsm.o(i.fsm_rconfack) refers to timers.o(i.sys_untimeout) for sys_untimeout
    fsm.o(i.fsm_rconfack) refers to fsm.o(i.fsm_sconfreq) for fsm_sconfreq
    fsm.o(i.fsm_rconfack) refers to fsm.o(i.fsm_timeout) for fsm_timeout
    fsm.o(i.fsm_rconfnakrej) refers to fsm.o(i.fsm_sdata) for fsm_sdata
    fsm.o(i.fsm_rconfnakrej) refers to timers.o(i.sys_untimeout) for sys_untimeout
    fsm.o(i.fsm_rconfnakrej) refers to fsm.o(i.fsm_sconfreq) for fsm_sconfreq
    fsm.o(i.fsm_rconfnakrej) refers to fsm.o(i.fsm_timeout) for fsm_timeout
    fsm.o(i.fsm_rconfreq) refers to fsm.o(i.fsm_sdata) for fsm_sdata
    fsm.o(i.fsm_rconfreq) refers to fsm.o(i.fsm_sconfreq) for fsm_sconfreq
    fsm.o(i.fsm_rconfreq) refers to timers.o(i.sys_untimeout) for sys_untimeout
    fsm.o(i.fsm_rconfreq) refers to fsm.o(i.fsm_timeout) for fsm_timeout
    fsm.o(i.fsm_rtermack) refers to timers.o(i.sys_untimeout) for sys_untimeout
    fsm.o(i.fsm_rtermack) refers to fsm.o(i.fsm_sconfreq) for fsm_sconfreq
    fsm.o(i.fsm_rtermack) refers to fsm.o(i.fsm_timeout) for fsm_timeout
    fsm.o(i.fsm_rtermreq) refers to timers.o(i.sys_untimeout) for sys_untimeout
    fsm.o(i.fsm_rtermreq) refers to timers.o(i.sys_timeout) for sys_timeout
    fsm.o(i.fsm_rtermreq) refers to fsm.o(i.fsm_sdata) for fsm_sdata
    fsm.o(i.fsm_rtermreq) refers to fsm.o(i.fsm_timeout) for fsm_timeout
    fsm.o(i.fsm_sconfreq) refers to fsm.o(i.fsm_sdata) for fsm_sdata
    fsm.o(i.fsm_sconfreq) refers to ppp.o(.bss) for outpacket_buf
    fsm.o(i.fsm_sconfreq) refers to fsm.o(.data) for peer_mru
    fsm.o(i.fsm_sdata) refers to memcpya.o(.text) for __aeabi_memcpy
    fsm.o(i.fsm_sdata) refers to ppp.o(i.pppWrite) for pppWrite
    fsm.o(i.fsm_sdata) refers to ppp.o(.bss) for outpacket_buf
    fsm.o(i.fsm_sdata) refers to fsm.o(.data) for peer_mru
    fsm.o(i.fsm_timeout) refers to fsm.o(i.fsm_sdata) for fsm_sdata
    fsm.o(i.fsm_timeout) refers to timers.o(i.sys_untimeout) for sys_untimeout
    fsm.o(i.fsm_timeout) refers to timers.o(i.sys_timeout) for sys_timeout
    fsm.o(i.fsm_timeout) refers to fsm.o(i.fsm_sconfreq) for fsm_sconfreq
    ipcp.o(i.ipcp_ackci) refers to def.o(i.lwip_htonl) for lwip_htonl
    ipcp.o(i.ipcp_ackci) refers to ipcp.o(.bss) for ipcp_gotoptions
    ipcp.o(i.ipcp_addci) refers to def.o(i.lwip_ntohl) for lwip_ntohl
    ipcp.o(i.ipcp_addci) refers to ipcp.o(.bss) for ipcp_gotoptions
    ipcp.o(i.ipcp_cilen) refers to ipcp.o(.bss) for ipcp_gotoptions
    ipcp.o(i.ipcp_cilen) refers to ipcp.o(.data) for cis_received
    ipcp.o(i.ipcp_clear_addrs) refers to ppp.o(i.cifdefaultroute) for cifdefaultroute
    ipcp.o(i.ipcp_clear_addrs) refers to ppp.o(i.cifaddr) for cifaddr
    ipcp.o(i.ipcp_clear_addrs) refers to ipcp.o(.bss) for ipcp_gotoptions
    ipcp.o(i.ipcp_clear_addrs) refers to ipcp.o(.data) for default_route_set
    ipcp.o(i.ipcp_close) refers to fsm.o(i.fsm_close) for fsm_close
    ipcp.o(i.ipcp_close) refers to ipcp.o(.bss) for ipcp_fsm
    ipcp.o(i.ipcp_down) refers to auth.o(i.np_down) for np_down
    ipcp.o(i.ipcp_down) refers to ppp.o(i.sifvjcomp) for sifvjcomp
    ipcp.o(i.ipcp_down) refers to ppp.o(i.sifdown) for sifdown
    ipcp.o(i.ipcp_down) refers to ipcp.o(i.ipcp_clear_addrs) for ipcp_clear_addrs
    ipcp.o(i.ipcp_finished) refers to auth.o(i.np_finished) for np_finished
    ipcp.o(i.ipcp_init) refers to fsm.o(i.fsm_init) for fsm_init
    ipcp.o(i.ipcp_init) refers to memseta.o(.text) for __aeabi_memclr4
    ipcp.o(i.ipcp_init) refers to ipcp.o(.bss) for ipcp_fsm
    ipcp.o(i.ipcp_init) refers to ipcp.o(.data) for ipcp_callbacks
    ipcp.o(i.ipcp_input) refers to fsm.o(i.fsm_input) for fsm_input
    ipcp.o(i.ipcp_input) refers to ipcp.o(.bss) for ipcp_fsm
    ipcp.o(i.ipcp_lowerdown) refers to fsm.o(i.fsm_lowerdown) for fsm_lowerdown
    ipcp.o(i.ipcp_lowerdown) refers to ipcp.o(.bss) for ipcp_fsm
    ipcp.o(i.ipcp_lowerup) refers to fsm.o(i.fsm_lowerup) for fsm_lowerup
    ipcp.o(i.ipcp_lowerup) refers to ipcp.o(.bss) for ipcp_fsm
    ipcp.o(i.ipcp_nakci) refers to memseta.o(.text) for __aeabi_memclr4
    ipcp.o(i.ipcp_nakci) refers to memcpya.o(.text) for __aeabi_memcpy4
    ipcp.o(i.ipcp_nakci) refers to def.o(i.lwip_htonl) for lwip_htonl
    ipcp.o(i.ipcp_nakci) refers to ipcp.o(.bss) for ipcp_gotoptions
    ipcp.o(i.ipcp_open) refers to fsm.o(i.fsm_open) for fsm_open
    ipcp.o(i.ipcp_open) refers to ipcp.o(.bss) for ipcp_fsm
    ipcp.o(i.ipcp_protrej) refers to fsm.o(i.fsm_lowerdown) for fsm_lowerdown
    ipcp.o(i.ipcp_protrej) refers to ipcp.o(.bss) for ipcp_fsm
    ipcp.o(i.ipcp_rejci) refers to memcpya.o(.text) for __aeabi_memcpy4
    ipcp.o(i.ipcp_rejci) refers to def.o(i.lwip_htonl) for lwip_htonl
    ipcp.o(i.ipcp_rejci) refers to ipcp.o(.bss) for ipcp_gotoptions
    ipcp.o(i.ipcp_reqci) refers to memseta.o(.text) for __aeabi_memclr4
    ipcp.o(i.ipcp_reqci) refers to def.o(i.lwip_htonl) for lwip_htonl
    ipcp.o(i.ipcp_reqci) refers to def.o(i.lwip_ntohl) for lwip_ntohl
    ipcp.o(i.ipcp_reqci) refers to memcpya.o(.text) for __aeabi_memcpy
    ipcp.o(i.ipcp_reqci) refers to ipcp.o(.bss) for ipcp_wantoptions
    ipcp.o(i.ipcp_reqci) refers to ipcp.o(.data) for cis_received
    ipcp.o(i.ipcp_resetci) refers to memcpya.o(.text) for __aeabi_memcpy4
    ipcp.o(i.ipcp_resetci) refers to ipcp.o(.bss) for ipcp_wantoptions
    ipcp.o(i.ipcp_resetci) refers to ppp.o(.bss) for ppp_settings
    ipcp.o(i.ipcp_resetci) refers to ipcp.o(.data) for cis_received
    ipcp.o(i.ipcp_up) refers to auth.o(i.np_up) for np_up
    ipcp.o(i.ipcp_up) refers to ipcp.o(i.ipcp_close) for ipcp_close
    ipcp.o(i.ipcp_up) refers to auth.o(i.auth_ip_addr) for auth_ip_addr
    ipcp.o(i.ipcp_up) refers to ppp.o(i.sifvjcomp) for sifvjcomp
    ipcp.o(i.ipcp_up) refers to ppp.o(i.GetMask) for GetMask
    ipcp.o(i.ipcp_up) refers to ppp.o(i.sifaddr) for sifaddr
    ipcp.o(i.ipcp_up) refers to ppp.o(i.sifup) for sifup
    ipcp.o(i.ipcp_up) refers to ppp.o(i.sifnpmode) for sifnpmode
    ipcp.o(i.ipcp_up) refers to ppp.o(i.sifdefaultroute) for sifdefaultroute
    ipcp.o(i.ipcp_up) refers to ipcp.o(.bss) for ipcp_hisoptions
    ipcp.o(i.ipcp_up) refers to ipcp.o(.data) for default_route_set
    ipcp.o(.data) refers to ipcp.o(i.ipcp_resetci) for ipcp_resetci
    ipcp.o(.data) refers to ipcp.o(i.ipcp_cilen) for ipcp_cilen
    ipcp.o(.data) refers to ipcp.o(i.ipcp_addci) for ipcp_addci
    ipcp.o(.data) refers to ipcp.o(i.ipcp_ackci) for ipcp_ackci
    ipcp.o(.data) refers to ipcp.o(i.ipcp_nakci) for ipcp_nakci
    ipcp.o(.data) refers to ipcp.o(i.ipcp_rejci) for ipcp_rejci
    ipcp.o(.data) refers to ipcp.o(i.ipcp_reqci) for ipcp_reqci
    ipcp.o(.data) refers to ipcp.o(i.ipcp_up) for ipcp_up
    ipcp.o(.data) refers to ipcp.o(i.ipcp_down) for ipcp_down
    ipcp.o(.data) refers to ipcp.o(i.ipcp_finished) for ipcp_finished
    ipcp.o(.data) refers to ipcp.o(.conststring) for .conststring
    ipcp.o(.data) refers to ipcp.o(i.ipcp_init) for ipcp_init
    ipcp.o(.data) refers to ipcp.o(i.ipcp_input) for ipcp_input
    ipcp.o(.data) refers to ipcp.o(i.ipcp_protrej) for ipcp_protrej
    ipcp.o(.data) refers to ipcp.o(i.ipcp_lowerup) for ipcp_lowerup
    ipcp.o(.data) refers to ipcp.o(i.ipcp_lowerdown) for ipcp_lowerdown
    ipcp.o(.data) refers to ipcp.o(i.ipcp_open) for ipcp_open
    ipcp.o(.data) refers to ipcp.o(i.ipcp_close) for ipcp_close
    lcp.o(i.LcpEchoCheck) refers to lcp.o(i.LcpSendEchoRequest) for LcpSendEchoRequest
    lcp.o(i.LcpEchoCheck) refers to printf3.o(i.__0printf$3) for __2printf
    lcp.o(i.LcpEchoCheck) refers to timers.o(i.sys_untimeout) for sys_untimeout
    lcp.o(i.LcpEchoCheck) refers to timers.o(i.sys_timeout) for sys_timeout
    lcp.o(i.LcpEchoCheck) refers to lcp.o(.data) for lcp_echo_timer_running
    lcp.o(i.LcpEchoCheck) refers to lcp.o(i.LcpEchoTimeout) for LcpEchoTimeout
    lcp.o(i.LcpEchoTimeout) refers to lcp.o(i.LcpEchoCheck) for LcpEchoCheck
    lcp.o(i.LcpEchoTimeout) refers to lcp.o(.data) for lcp_echo_timer_running
    lcp.o(i.LcpLinkFailure) refers to lcp.o(i.lcp_close) for lcp_close
    lcp.o(i.LcpSendEchoRequest) refers to lcp.o(i.LcpLinkFailure) for LcpLinkFailure
    lcp.o(i.LcpSendEchoRequest) refers to fsm.o(i.fsm_sdata) for fsm_sdata
    lcp.o(i.LcpSendEchoRequest) refers to lcp.o(.data) for lcp_echo_fails
    lcp.o(i.LcpSendEchoRequest) refers to lcp.o(.bss) for lcp_gotoptions
    lcp.o(i.lcp_ackci) refers to lcp.o(.bss) for lcp_gotoptions
    lcp.o(i.lcp_addci) refers to lcp.o(.bss) for lcp_gotoptions
    lcp.o(i.lcp_cilen) refers to lcp.o(.bss) for lcp_gotoptions
    lcp.o(i.lcp_close) refers to lcp.o(i.lcp_finished) for lcp_finished
    lcp.o(i.lcp_close) refers to fsm.o(i.fsm_close) for fsm_close
    lcp.o(i.lcp_close) refers to lcp.o(.bss) for lcp_fsm
    lcp.o(i.lcp_close) refers to lcp.o(.data) for lcp_phase
    lcp.o(i.lcp_down) refers to lcp.o(i.lcp_echo_lowerdown) for lcp_echo_lowerdown
    lcp.o(i.lcp_down) refers to auth.o(i.link_down) for link_down
    lcp.o(i.lcp_down) refers to ppp.o(i.ppp_send_config) for ppp_send_config
    lcp.o(i.lcp_down) refers to ppp.o(i.ppp_recv_config) for ppp_recv_config
    lcp.o(i.lcp_down) refers to lcp.o(.bss) for lcp_gotoptions
    lcp.o(i.lcp_down) refers to fsm.o(.data) for peer_mru
    lcp.o(i.lcp_echo_lowerdown) refers to timers.o(i.sys_untimeout) for sys_untimeout
    lcp.o(i.lcp_echo_lowerdown) refers to lcp.o(.bss) for lcp_fsm
    lcp.o(i.lcp_echo_lowerdown) refers to lcp.o(.data) for lcp_echo_timer_running
    lcp.o(i.lcp_echo_lowerdown) refers to lcp.o(i.LcpEchoTimeout) for LcpEchoTimeout
    lcp.o(i.lcp_echo_lowerup) refers to lcp.o(i.LcpEchoCheck) for LcpEchoCheck
    lcp.o(i.lcp_echo_lowerup) refers to lcp.o(.bss) for lcp_fsm
    lcp.o(i.lcp_echo_lowerup) refers to lcp.o(.data) for lcp_echos_pending
    lcp.o(i.lcp_extcode) refers to lcp.o(i.lcp_rprotrej) for lcp_rprotrej
    lcp.o(i.lcp_extcode) refers to fsm.o(i.fsm_sdata) for fsm_sdata
    lcp.o(i.lcp_extcode) refers to lcp.o(i.lcp_received_echo_reply) for lcp_received_echo_reply
    lcp.o(i.lcp_extcode) refers to lcp.o(.bss) for lcp_gotoptions
    lcp.o(i.lcp_finished) refers to auth.o(i.link_terminated) for link_terminated
    lcp.o(i.lcp_init) refers to fsm.o(i.fsm_init) for fsm_init
    lcp.o(i.lcp_init) refers to memseta.o(.text) for __aeabi_memclr
    lcp.o(i.lcp_init) refers to lcp.o(.bss) for lcp_fsm
    lcp.o(i.lcp_init) refers to lcp.o(.data) for lcp_callbacks
    lcp.o(i.lcp_input) refers to fsm.o(i.fsm_input) for fsm_input
    lcp.o(i.lcp_input) refers to lcp.o(.bss) for lcp_fsm
    lcp.o(i.lcp_lowerdown) refers to fsm.o(i.fsm_lowerdown) for fsm_lowerdown
    lcp.o(i.lcp_lowerdown) refers to lcp.o(.bss) for lcp_fsm
    lcp.o(i.lcp_lowerup) refers to ppp.o(i.ppp_set_xaccm) for ppp_set_xaccm
    lcp.o(i.lcp_lowerup) refers to ppp.o(i.ppp_send_config) for ppp_send_config
    lcp.o(i.lcp_lowerup) refers to ppp.o(i.ppp_recv_config) for ppp_recv_config
    lcp.o(i.lcp_lowerup) refers to fsm.o(i.fsm_lowerup) for fsm_lowerup
    lcp.o(i.lcp_lowerup) refers to lcp.o(.bss) for lcp_wantoptions
    lcp.o(i.lcp_lowerup) refers to fsm.o(.data) for peer_mru
    lcp.o(i.lcp_nakci) refers to memseta.o(.text) for __aeabi_memclr4
    lcp.o(i.lcp_nakci) refers to memcpya.o(.text) for __aeabi_memcpy4
    lcp.o(i.lcp_nakci) refers to magic.o(i.magic) for magic
    lcp.o(i.lcp_nakci) refers to lcp.o(.bss) for lcp_gotoptions
    lcp.o(i.lcp_nakci) refers to lcp.o(i.lcp_close) for lcp_close
    lcp.o(i.lcp_nakci) refers to lcp.o(.data) for lcp_loopbackfail
    lcp.o(i.lcp_open) refers to fsm.o(i.fsm_open) for fsm_open
    lcp.o(i.lcp_open) refers to lcp.o(.bss) for lcp_fsm
    lcp.o(i.lcp_open) refers to lcp.o(.data) for lcp_phase
    lcp.o(i.lcp_protrej) refers to fsm.o(i.fsm_protreject) for fsm_protreject
    lcp.o(i.lcp_protrej) refers to lcp.o(.bss) for lcp_fsm
    lcp.o(i.lcp_received_echo_reply) refers to lcp.o(.bss) for lcp_gotoptions
    lcp.o(i.lcp_received_echo_reply) refers to lcp.o(.data) for lcp_echos_pending
    lcp.o(i.lcp_rejci) refers to memcpya.o(.text) for __aeabi_memcpy4
    lcp.o(i.lcp_rejci) refers to lcp.o(.bss) for lcp_gotoptions
    lcp.o(i.lcp_reqci) refers to memseta.o(.text) for __aeabi_memclr4
    lcp.o(i.lcp_reqci) refers to magic.o(i.magic) for magic
    lcp.o(i.lcp_reqci) refers to lcp.o(.bss) for lcp_gotoptions
    lcp.o(i.lcp_reqci) refers to memcpya.o(.text) for __aeabi_memcpy
    lcp.o(i.lcp_resetci) refers to magic.o(i.magic) for magic
    lcp.o(i.lcp_resetci) refers to memcpya.o(.text) for __aeabi_memcpy4
    lcp.o(i.lcp_resetci) refers to auth.o(i.auth_reset) for auth_reset
    lcp.o(i.lcp_resetci) refers to lcp.o(.bss) for lcp_wantoptions
    lcp.o(i.lcp_resetci) refers to fsm.o(.data) for peer_mru
    lcp.o(i.lcp_rprotrej) refers to ppp.o(.data) for ppp_protocols
    lcp.o(i.lcp_sprotrej) refers to fsm.o(i.fsm_sdata) for fsm_sdata
    lcp.o(i.lcp_sprotrej) refers to lcp.o(.bss) for lcp_fsm
    lcp.o(i.lcp_starting) refers to auth.o(i.link_required) for link_required
    lcp.o(i.lcp_up) refers to ppp.o(i.ppp_send_config) for ppp_send_config
    lcp.o(i.lcp_up) refers to ppp.o(i.ppp_recv_config) for ppp_recv_config
    lcp.o(i.lcp_up) refers to lcp.o(i.lcp_echo_lowerup) for lcp_echo_lowerup
    lcp.o(i.lcp_up) refers to auth.o(i.link_established) for link_established
    lcp.o(i.lcp_up) refers to lcp.o(.bss) for lcp_wantoptions
    lcp.o(i.lcp_up) refers to fsm.o(.data) for peer_mru
    lcp.o(.data) refers to lcp.o(i.lcp_resetci) for lcp_resetci
    lcp.o(.data) refers to lcp.o(i.lcp_cilen) for lcp_cilen
    lcp.o(.data) refers to lcp.o(i.lcp_addci) for lcp_addci
    lcp.o(.data) refers to lcp.o(i.lcp_ackci) for lcp_ackci
    lcp.o(.data) refers to lcp.o(i.lcp_nakci) for lcp_nakci
    lcp.o(.data) refers to lcp.o(i.lcp_rejci) for lcp_rejci
    lcp.o(.data) refers to lcp.o(i.lcp_reqci) for lcp_reqci
    lcp.o(.data) refers to lcp.o(i.lcp_up) for lcp_up
    lcp.o(.data) refers to lcp.o(i.lcp_down) for lcp_down
    lcp.o(.data) refers to lcp.o(i.lcp_starting) for lcp_starting
    lcp.o(.data) refers to lcp.o(i.lcp_finished) for lcp_finished
    lcp.o(.data) refers to lcp.o(i.lcp_extcode) for lcp_extcode
    lcp.o(.data) refers to lcp.o(.conststring) for .conststring
    lcp.o(.data) refers to lcp.o(i.lcp_init) for lcp_init
    lcp.o(.data) refers to lcp.o(i.lcp_input) for lcp_input
    lcp.o(.data) refers to lcp.o(i.lcp_protrej) for lcp_protrej
    lcp.o(.data) refers to lcp.o(i.lcp_lowerup) for lcp_lowerup
    lcp.o(.data) refers to lcp.o(i.lcp_lowerdown) for lcp_lowerdown
    lcp.o(.data) refers to lcp.o(i.lcp_open) for lcp_open
    lcp.o(.data) refers to lcp.o(i.lcp_close) for lcp_close
    magic.o(i.magic) refers to randm.o(i.avRandom) for avRandom
    md5.o(i.MD5Final) refers to md5.o(i.MD5Update) for MD5Update
    md5.o(i.MD5Final) refers to md5.o(i.Transform) for Transform
    md5.o(i.MD5Final) refers to memcpya.o(.text) for __aeabi_memcpy
    md5.o(i.MD5Final) refers to md5.o(.data) for PADDING
    md5.o(i.MD5Update) refers to md5.o(i.Transform) for Transform
    pap.o(i.upap_authpeer) refers to timers.o(i.sys_untimeout) for sys_untimeout
    pap.o(i.upap_authpeer) refers to timers.o(i.sys_timeout) for sys_timeout
    pap.o(i.upap_authpeer) refers to pap.o(.bss) for upap
    pap.o(i.upap_authpeer) refers to pap.o(i.upap_reqtimeout) for upap_reqtimeout
    pap.o(i.upap_authwithpeer) refers to strlen.o(.text) for strlen
    pap.o(i.upap_authwithpeer) refers to pap.o(i.upap_sauthreq) for upap_sauthreq
    pap.o(i.upap_authwithpeer) refers to pap.o(.bss) for upap
    pap.o(i.upap_init) refers to pap.o(.bss) for upap
    pap.o(i.upap_input) refers to pap.o(i.upap_rauthreq) for upap_rauthreq
    pap.o(i.upap_input) refers to pap.o(i.upap_rauthack) for upap_rauthack
    pap.o(i.upap_input) refers to pap.o(i.upap_rauthnak) for upap_rauthnak
    pap.o(i.upap_input) refers to pap.o(.bss) for upap
    pap.o(i.upap_lowerdown) refers to timers.o(i.sys_untimeout) for sys_untimeout
    pap.o(i.upap_lowerdown) refers to pap.o(.bss) for upap
    pap.o(i.upap_lowerdown) refers to pap.o(i.upap_timeout) for upap_timeout
    pap.o(i.upap_lowerdown) refers to pap.o(i.upap_reqtimeout) for upap_reqtimeout
    pap.o(i.upap_lowerup) refers to pap.o(i.upap_sauthreq) for upap_sauthreq
    pap.o(i.upap_lowerup) refers to timers.o(i.sys_untimeout) for sys_untimeout
    pap.o(i.upap_lowerup) refers to timers.o(i.sys_timeout) for sys_timeout
    pap.o(i.upap_lowerup) refers to pap.o(.bss) for upap
    pap.o(i.upap_lowerup) refers to pap.o(i.upap_reqtimeout) for upap_reqtimeout
    pap.o(i.upap_protrej) refers to auth.o(i.auth_withpeer_fail) for auth_withpeer_fail
    pap.o(i.upap_protrej) refers to auth.o(i.auth_peer_fail) for auth_peer_fail
    pap.o(i.upap_protrej) refers to pap.o(i.upap_lowerdown) for upap_lowerdown
    pap.o(i.upap_protrej) refers to pap.o(.bss) for upap
    pap.o(i.upap_rauthack) refers to timers.o(i.sys_untimeout) for sys_untimeout
    pap.o(i.upap_rauthack) refers to auth.o(i.auth_withpeer_success) for auth_withpeer_success
    pap.o(i.upap_rauthack) refers to pap.o(i.upap_timeout) for upap_timeout
    pap.o(i.upap_rauthnak) refers to auth.o(i.auth_withpeer_fail) for auth_withpeer_fail
    pap.o(i.upap_rauthreq) refers to pap.o(i.upap_sresp) for upap_sresp
    pap.o(i.upap_rauthreq) refers to auth.o(i.check_passwd) for check_passwd
    pap.o(i.upap_rauthreq) refers to memseta.o(.text) for __aeabi_memclr
    pap.o(i.upap_rauthreq) refers to auth.o(i.auth_peer_success) for auth_peer_success
    pap.o(i.upap_rauthreq) refers to auth.o(i.auth_peer_fail) for auth_peer_fail
    pap.o(i.upap_rauthreq) refers to timers.o(i.sys_untimeout) for sys_untimeout
    pap.o(i.upap_rauthreq) refers to pap.o(i.upap_reqtimeout) for upap_reqtimeout
    pap.o(i.upap_reqtimeout) refers to auth.o(i.auth_peer_fail) for auth_peer_fail
    pap.o(i.upap_sauthreq) refers to memcpya.o(.text) for __aeabi_memcpy
    pap.o(i.upap_sauthreq) refers to ppp.o(i.pppWrite) for pppWrite
    pap.o(i.upap_sauthreq) refers to timers.o(i.sys_untimeout) for sys_untimeout
    pap.o(i.upap_sauthreq) refers to timers.o(i.sys_timeout) for sys_timeout
    pap.o(i.upap_sauthreq) refers to ppp.o(.bss) for outpacket_buf
    pap.o(i.upap_sauthreq) refers to pap.o(i.upap_timeout) for upap_timeout
    pap.o(i.upap_sresp) refers to memcpya.o(.text) for __aeabi_memcpy
    pap.o(i.upap_sresp) refers to ppp.o(i.pppWrite) for pppWrite
    pap.o(i.upap_sresp) refers to ppp.o(.bss) for outpacket_buf
    pap.o(i.upap_timeout) refers to auth.o(i.auth_withpeer_fail) for auth_withpeer_fail
    pap.o(i.upap_timeout) refers to pap.o(i.upap_sauthreq) for upap_sauthreq
    pap.o(.data) refers to pap.o(i.upap_init) for upap_init
    pap.o(.data) refers to pap.o(i.upap_input) for upap_input
    pap.o(.data) refers to pap.o(i.upap_protrej) for upap_protrej
    pap.o(.data) refers to pap.o(i.upap_lowerup) for upap_lowerup
    pap.o(.data) refers to pap.o(i.upap_lowerdown) for upap_lowerdown
    pap.o(.data) refers to pap.o(.conststring) for .conststring
    ppp.o(i.GetMask) refers to def.o(i.lwip_htonl) for lwip_htonl
    ppp.o(i.GetMask) refers to ppp.o(.data) for subnetMask
    ppp.o(i.cifaddr) refers to ppp.o(.bss) for pppControl
    ppp.o(i.cifdefaultroute) refers to netif.o(i.netif_set_default) for netif_set_default
    ppp.o(i.cifdefaultroute) refers to ppp.o(.bss) for pppControl
    ppp.o(i.nPut) refers to sio.o(i.sio_write) for sio_write
    ppp.o(i.nPut) refers to pbuf.o(i.pbuf_free) for pbuf_free
    ppp.o(i.pppAppend) refers to pbuf.o(i.pbuf_alloc) for pbuf_alloc
    ppp.o(i.pppAppend) refers to ppp.o(.data) for pppACCMMask
    ppp.o(i.pppClose) refers to ppp.o(i.pppStop) for pppStop
    ppp.o(i.pppClose) refers to ppp.o(.bss) for pppControl
    ppp.o(i.pppDrop) refers to ppp.o(i.pppFreeCurrentInputPacket) for pppFreeCurrentInputPacket
    ppp.o(i.pppFreeCurrentInputPacket) refers to pbuf.o(i.pbuf_free) for pbuf_free
    ppp.o(i.pppHup) refers to lcp.o(i.lcp_lowerdown) for lcp_lowerdown
    ppp.o(i.pppHup) refers to auth.o(i.link_terminated) for link_terminated
    ppp.o(i.pppIOCtl) refers to ppp.o(.bss) for pppControl
    ppp.o(i.pppInProc) refers to ppp.o(i.pppDrop) for pppDrop
    ppp.o(i.pppInProc) refers to pbuf.o(i.pbuf_cat) for pbuf_cat
    ppp.o(i.pppInProc) refers to pbuf.o(i.pbuf_realloc) for pbuf_realloc
    ppp.o(i.pppInProc) refers to ppp.o(i.pppInput) for pppInput
    ppp.o(i.pppInProc) refers to pbuf.o(i.pbuf_alloc) for pbuf_alloc
    ppp.o(i.pppInProc) refers to randm.o(i.avRandomize) for avRandomize
    ppp.o(i.pppInProc) refers to ppp.o(.data) for pppACCMMask
    ppp.o(i.pppInProc) refers to ppp.o(.constdata) for fcstab
    ppp.o(i.pppInit) refers to memseta.o(.text) for __aeabi_memclr4
    ppp.o(i.pppInit) refers to ppp.o(i.pppSetAuth) for pppSetAuth
    ppp.o(i.pppInit) refers to magic.o(i.magicInit) for magicInit
    ppp.o(i.pppInit) refers to printf3.o(i.__0printf$3) for __2printf
    ppp.o(i.pppInit) refers to ppp.o(.bss) for ppp_settings
    ppp.o(i.pppInit) refers to ppp.o(.data) for subnetMask
    ppp.o(i.pppInput) refers to pbuf.o(i.pbuf_header) for pbuf_header
    ppp.o(i.pppInput) refers to printf3.o(i.__0printf$3) for __2printf
    ppp.o(i.pppInput) refers to ppp.o(i.pppSingleBuf) for pppSingleBuf
    ppp.o(i.pppInput) refers to def.o(i.lwip_htons) for lwip_htons
    ppp.o(i.pppInput) refers to lcp.o(i.lcp_sprotrej) for lcp_sprotrej
    ppp.o(i.pppInput) refers to pbuf.o(i.pbuf_free) for pbuf_free
    ppp.o(i.pppInput) refers to lcp.o(.data) for lcp_phase
    ppp.o(i.pppInput) refers to ppp.o(.bss) for pppControl
    ppp.o(i.pppInput) refers to ppp.o(.data) for ppp_protocols
    ppp.o(i.pppLinkTerminated) refers to ppp.o(.bss) for pppControl
    ppp.o(i.pppMTU) refers to ppp.o(.bss) for pppControl
    ppp.o(i.pppOverSerialOpen) refers to ppp.o(i.pppFreeCurrentInputPacket) for pppFreeCurrentInputPacket
    ppp.o(i.pppOverSerialOpen) refers to memseta.o(.text) for __aeabi_memclr4
    ppp.o(i.pppOverSerialOpen) refers to ppp.o(i.pppStart) for pppStart
    ppp.o(i.pppOverSerialOpen) refers to ppp.o(.bss) for pppControl
    ppp.o(i.pppSetAuth) refers to strncpy.o(.text) for strncpy
    ppp.o(i.pppSetAuth) refers to ppp.o(.bss) for ppp_settings
    ppp.o(i.pppSigHUP) refers to ppp.o(i.pppHup) for pppHup
    ppp.o(i.pppSingleBuf) refers to pbuf.o(i.pbuf_alloc) for pbuf_alloc
    ppp.o(i.pppSingleBuf) refers to memcpya.o(.text) for __aeabi_memcpy
    ppp.o(i.pppSingleBuf) refers to pbuf.o(i.pbuf_free) for pbuf_free
    ppp.o(i.pppStart) refers to lcp.o(i.lcp_lowerup) for lcp_lowerup
    ppp.o(i.pppStart) refers to lcp.o(i.lcp_open) for lcp_open
    ppp.o(i.pppStop) refers to lcp.o(i.lcp_close) for lcp_close
    ppp.o(i.pppWrite) refers to pbuf.o(i.pbuf_alloc) for pbuf_alloc
    ppp.o(i.pppWrite) refers to sys_arch.o(i.sys_jiffies) for sys_jiffies
    ppp.o(i.pppWrite) refers to ppp.o(i.pppAppend) for pppAppend
    ppp.o(i.pppWrite) refers to pbuf.o(i.pbuf_free) for pbuf_free
    ppp.o(i.pppWrite) refers to ppp.o(i.nPut) for nPut
    ppp.o(i.pppWrite) refers to ppp.o(.bss) for pppControl
    ppp.o(i.pppWrite) refers to ppp.o(.constdata) for fcstab
    ppp.o(i.ppp_recv_config) refers to ppp.o(.bss) for pppControl
    ppp.o(i.ppp_send_config) refers to ppp.o(.bss) for pppControl
    ppp.o(i.ppp_set_netif_linkcallback) refers to netif.o(i.netif_set_link_callback) for netif_set_link_callback
    ppp.o(i.ppp_set_netif_linkcallback) refers to ppp.o(.bss) for pppControl
    ppp.o(i.ppp_set_netif_statuscallback) refers to netif.o(i.netif_set_status_callback) for netif_set_status_callback
    ppp.o(i.ppp_set_netif_statuscallback) refers to ppp.o(.bss) for pppControl
    ppp.o(i.ppp_set_xaccm) refers to memcpya.o(.text) for __aeabi_memcpy
    ppp.o(i.ppp_set_xaccm) refers to ppp.o(.bss) for pppControl
    ppp.o(i.pppifNetifInit) refers to ppp.o(i.pppMTU) for pppMTU
    ppp.o(i.pppifNetifInit) refers to ppp.o(i.pppifOutput) for pppifOutput
    ppp.o(i.pppifOutput) refers to pbuf.o(i.pbuf_alloc) for pbuf_alloc
    ppp.o(i.pppifOutput) refers to sys_arch.o(i.sys_jiffies) for sys_jiffies
    ppp.o(i.pppifOutput) refers to ppp.o(i.pppAppend) for pppAppend
    ppp.o(i.pppifOutput) refers to pbuf.o(i.pbuf_free) for pbuf_free
    ppp.o(i.pppifOutput) refers to ppp.o(i.nPut) for nPut
    ppp.o(i.pppifOutput) refers to ppp.o(.bss) for pppControl
    ppp.o(i.pppifOutput) refers to lcp.o(.data) for lcp_phase
    ppp.o(i.pppifOutput) refers to ppp.o(.constdata) for fcstab
    ppp.o(i.pppos_input) refers to ppp.o(i.pppInProc) for pppInProc
    ppp.o(i.pppos_input) refers to usart2.o(.data) for USART2_RX_STA_BACKUP
    ppp.o(i.pppos_input) refers to ppp.o(.bss) for pppControl
    ppp.o(i.sifaddr) refers to ppp.o(.bss) for pppControl
    ppp.o(i.sifdefaultroute) refers to netif.o(i.netif_set_default) for netif_set_default
    ppp.o(i.sifdefaultroute) refers to ppp.o(.bss) for pppControl
    ppp.o(i.sifdown) refers to netif.o(i.netif_set_down) for netif_set_down
    ppp.o(i.sifdown) refers to netif.o(i.netif_remove) for netif_remove
    ppp.o(i.sifdown) refers to ppp.o(.bss) for pppControl
    ppp.o(i.sifup) refers to netif.o(i.netif_remove) for netif_remove
    ppp.o(i.sifup) refers to netif.o(i.netif_add) for netif_add
    ppp.o(i.sifup) refers to netif.o(i.netif_set_up) for netif_set_up
    ppp.o(i.sifup) refers to ppp.o(.bss) for pppControl
    ppp.o(i.sifup) refers to ip.o(i.ip_input) for ip_input
    ppp.o(i.sifup) refers to ppp.o(i.pppifNetifInit) for pppifNetifInit
    ppp.o(.data) refers to lcp.o(.data) for lcp_protent
    ppp.o(.data) refers to pap.o(.data) for pap_protent
    ppp.o(.data) refers to chap.o(.data) for chap_protent
    ppp.o(.data) refers to ipcp.o(.data) for ipcp_protent
    randm.o(i.avRandom) refers to rand.o(.text) for rand
    randm.o(i.avRandom) refers to randm.o(.data) for avRandomSeed
    randm.o(i.avRandomInit) refers to sys_arch.o(i.sys_jiffies) for sys_jiffies
    randm.o(i.avRandomInit) refers to rand.o(.text) for srand
    randm.o(i.avRandomInit) refers to randm.o(.data) for avRandomSeed
    randm.o(i.avRandomize) refers to randm.o(i.avRandomInit) for avRandomInit
    randm.o(i.avRandomize) refers to sys_arch.o(i.sys_jiffies) for sys_jiffies
    randm.o(i.avRandomize) refers to randm.o(.data) for avRandomized
    def.o(i.lwip_ntohl) refers to def.o(i.lwip_htonl) for lwip_htonl
    def.o(i.lwip_ntohs) refers to def.o(i.lwip_htons) for lwip_htons
    dns.o(i.dns_check_entries) refers to dns.o(i.dns_check_entry) for dns_check_entry
    dns.o(i.dns_check_entry) refers to printf3.o(i.__0printf$3) for __2printf
    dns.o(i.dns_check_entry) refers to dns.o(i.dns_send) for dns_send
    dns.o(i.dns_check_entry) refers to dns.o(.bss) for dns_table
    dns.o(i.dns_check_entry) refers to dns.o(.data) for dns_servers
    dns.o(i.dns_enqueue) refers to strlen.o(.text) for strlen
    dns.o(i.dns_enqueue) refers to memcpya.o(.text) for __aeabi_memcpy
    dns.o(i.dns_enqueue) refers to dns.o(i.dns_check_entry) for dns_check_entry
    dns.o(i.dns_enqueue) refers to dns.o(.bss) for dns_table
    dns.o(i.dns_enqueue) refers to dns.o(.data) for dns_seqno
    dns.o(i.dns_gethostbyname) refers to strlen.o(.text) for strlen
    dns.o(i.dns_gethostbyname) refers to ip_addr.o(i.ipaddr_addr) for ipaddr_addr
    dns.o(i.dns_gethostbyname) refers to dns.o(i.dns_lookup) for dns_lookup
    dns.o(i.dns_gethostbyname) refers to dns.o(i.dns_enqueue) for dns_enqueue
    dns.o(i.dns_gethostbyname) refers to dns.o(.data) for dns_pcb
    dns.o(i.dns_getserver) refers to dns.o(.data) for dns_servers
    dns.o(i.dns_getserver) refers to ip_addr.o(.constdata) for ip_addr_any
    dns.o(i.dns_init) refers to ip_addr.o(i.ipaddr_addr) for ipaddr_addr
    dns.o(i.dns_init) refers to udp.o(i.udp_new) for udp_new
    dns.o(i.dns_init) refers to udp.o(i.udp_bind) for udp_bind
    dns.o(i.dns_init) refers to udp.o(i.udp_recv) for udp_recv
    dns.o(i.dns_init) refers to dns.o(i.dns_setserver) for dns_setserver
    dns.o(i.dns_init) refers to dns.o(.bss) for dns_payload_buffer
    dns.o(i.dns_init) refers to dns.o(.data) for dns_payload
    dns.o(i.dns_init) refers to ip_addr.o(.constdata) for ip_addr_any
    dns.o(i.dns_init) refers to dns.o(i.dns_recv) for dns_recv
    dns.o(i.dns_lookup) refers to strcmp.o(.text) for strcmp
    dns.o(i.dns_lookup) refers to dns.o(.bss) for dns_table
    dns.o(i.dns_recv) refers to pbuf.o(i.pbuf_copy_partial) for pbuf_copy_partial
    dns.o(i.dns_recv) refers to def.o(i.lwip_htons) for lwip_htons
    dns.o(i.dns_recv) refers to dns.o(i.dns_compare_name) for dns_compare_name
    dns.o(i.dns_recv) refers to dns.o(i.dns_parse_name) for dns_parse_name
    dns.o(i.dns_recv) refers to def.o(i.lwip_ntohl) for lwip_ntohl
    dns.o(i.dns_recv) refers to pbuf.o(i.pbuf_free) for pbuf_free
    dns.o(i.dns_recv) refers to dns.o(.data) for dns_payload
    dns.o(i.dns_recv) refers to dns.o(.bss) for dns_table
    dns.o(i.dns_send) refers to printf3.o(i.__0printf$3) for __2printf
    dns.o(i.dns_send) refers to pbuf.o(i.pbuf_alloc) for pbuf_alloc
    dns.o(i.dns_send) refers to def.o(i.lwip_htons) for lwip_htons
    dns.o(i.dns_send) refers to pbuf.o(i.pbuf_realloc) for pbuf_realloc
    dns.o(i.dns_send) refers to udp.o(i.udp_connect) for udp_connect
    dns.o(i.dns_send) refers to udp.o(i.udp_sendto) for udp_sendto
    dns.o(i.dns_send) refers to pbuf.o(i.pbuf_free) for pbuf_free
    dns.o(i.dns_send) refers to dns.o(.data) for dns_servers
    dns.o(i.dns_setserver) refers to dns.o(.data) for dns_pcb
    dns.o(i.dns_tmr) refers to dns.o(i.dns_check_entries) for dns_check_entries
    dns.o(i.dns_tmr) refers to dns.o(.data) for dns_pcb
    init.o(i.lwip_init) refers to stats.o(i.stats_init) for stats_init
    init.o(i.lwip_init) refers to mem.o(i.mem_init) for mem_init
    init.o(i.lwip_init) refers to netif.o(i.netif_init) for netif_init
    init.o(i.lwip_init) refers to udp.o(i.udp_init) for udp_init
    init.o(i.lwip_init) refers to tcp.o(i.tcp_init) for tcp_init
    init.o(i.lwip_init) refers to dns.o(i.dns_init) for dns_init
    init.o(i.lwip_init) refers to timers.o(i.sys_timeouts_init) for sys_timeouts_init
    mem.o(i.mem_calloc) refers to mem.o(i.mem_malloc) for mem_malloc
    mem.o(i.mem_calloc) refers to memseta.o(.text) for __aeabi_memclr
    mem.o(i.mem_free) refers to printf3.o(i.__0printf$3) for __2printf
    mem.o(i.mem_free) refers to mem.o(i.plug_holes) for plug_holes
    mem.o(i.mem_free) refers to mem.o(.data) for ram
    mem.o(i.mem_init) refers to mem.o(.bss) for ram_heap
    mem.o(i.mem_init) refers to mem.o(.data) for ram
    mem.o(i.mem_malloc) refers to printf3.o(i.__0printf$3) for __2printf
    mem.o(i.mem_malloc) refers to mem.o(.data) for lfree
    mem.o(i.mem_trim) refers to printf3.o(i.__0printf$3) for __2printf
    mem.o(i.mem_trim) refers to mem.o(.data) for ram
    mem.o(i.plug_holes) refers to printf3.o(i.__0printf$3) for __2printf
    mem.o(i.plug_holes) refers to mem.o(.data) for ram
    netif.o(i.netif_add) refers to printf3.o(i.__0printf$3) for __2printf
    netif.o(i.netif_add) refers to netif.o(i.netif_set_addr) for netif_set_addr
    netif.o(i.netif_add) refers to netif.o(.data) for netif_num
    netif.o(i.netif_find) refers to netif.o(.data) for netif_list
    netif.o(i.netif_remove) refers to netif.o(i.netif_set_down) for netif_set_down
    netif.o(i.netif_remove) refers to netif.o(i.netif_set_default) for netif_set_default
    netif.o(i.netif_remove) refers to netif.o(.data) for netif_list
    netif.o(i.netif_set_addr) refers to netif.o(i.netif_set_ipaddr) for netif_set_ipaddr
    netif.o(i.netif_set_addr) refers to netif.o(i.netif_set_netmask) for netif_set_netmask
    netif.o(i.netif_set_addr) refers to netif.o(i.netif_set_gw) for netif_set_gw
    netif.o(i.netif_set_default) refers to netif.o(.data) for netif_default
    netif.o(i.netif_set_ipaddr) refers to tcp.o(i.tcp_abort) for tcp_abort
    netif.o(i.netif_set_ipaddr) refers to tcp.o(.data) for tcp_active_pcbs
    pbuf.o(i.pbuf_alloc) refers to printf3.o(i.__0printf$3) for __2printf
    pbuf.o(i.pbuf_alloc) refers to mem.o(i.mem_malloc) for mem_malloc
    pbuf.o(i.pbuf_alloc) refers to pbuf.o(i.pbuf_free) for pbuf_free
    pbuf.o(i.pbuf_alloc) refers to memp.o(.constdata) for memp_sizes
    pbuf.o(i.pbuf_alloced_custom) refers to printf3.o(i.__0printf$3) for __2printf
    pbuf.o(i.pbuf_cat) refers to printf3.o(i.__0printf$3) for __2printf
    pbuf.o(i.pbuf_chain) refers to pbuf.o(i.pbuf_cat) for pbuf_cat
    pbuf.o(i.pbuf_chain) refers to pbuf.o(i.pbuf_ref) for pbuf_ref
    pbuf.o(i.pbuf_coalesce) refers to pbuf.o(i.pbuf_alloc) for pbuf_alloc
    pbuf.o(i.pbuf_coalesce) refers to pbuf.o(i.pbuf_copy) for pbuf_copy
    pbuf.o(i.pbuf_coalesce) refers to printf3.o(i.__0printf$3) for __2printf
    pbuf.o(i.pbuf_coalesce) refers to pbuf.o(i.pbuf_free) for pbuf_free
    pbuf.o(i.pbuf_copy) refers to printf3.o(i.__0printf$3) for __2printf
    pbuf.o(i.pbuf_copy) refers to memcpya.o(.text) for __aeabi_memcpy
    pbuf.o(i.pbuf_copy_partial) refers to printf3.o(i.__0printf$3) for __2printf
    pbuf.o(i.pbuf_copy_partial) refers to memcpya.o(.text) for __aeabi_memcpy
    pbuf.o(i.pbuf_dechain) refers to printf3.o(i.__0printf$3) for __2printf
    pbuf.o(i.pbuf_dechain) refers to pbuf.o(i.pbuf_free) for pbuf_free
    pbuf.o(i.pbuf_free) refers to printf3.o(i.__0printf$3) for __2printf
    pbuf.o(i.pbuf_free) refers to mem.o(i.mem_free) for mem_free
    pbuf.o(i.pbuf_header) refers to printf3.o(i.__0printf$3) for __2printf
    pbuf.o(i.pbuf_memcmp) refers to pbuf.o(i.pbuf_get_at) for pbuf_get_at
    pbuf.o(i.pbuf_memfind) refers to pbuf.o(i.pbuf_memcmp) for pbuf_memcmp
    pbuf.o(i.pbuf_realloc) refers to printf3.o(i.__0printf$3) for __2printf
    pbuf.o(i.pbuf_realloc) refers to mem.o(i.mem_trim) for mem_trim
    pbuf.o(i.pbuf_realloc) refers to pbuf.o(i.pbuf_free) for pbuf_free
    pbuf.o(i.pbuf_strstr) refers to strlen.o(.text) for strlen
    pbuf.o(i.pbuf_strstr) refers to pbuf.o(i.pbuf_memfind) for pbuf_memfind
    pbuf.o(i.pbuf_take) refers to printf3.o(i.__0printf$3) for __2printf
    pbuf.o(i.pbuf_take) refers to memcpya.o(.text) for __aeabi_memcpy
    raw.o(i.raw_input) refers to raw.o(.data) for raw_pcbs
    raw.o(i.raw_input) refers to ip.o(.data) for current_iphdr_dest
    raw.o(i.raw_new) refers to mem.o(i.mem_malloc) for mem_malloc
    raw.o(i.raw_new) refers to memseta.o(.text) for __aeabi_memclr4
    raw.o(i.raw_new) refers to memp.o(.constdata) for memp_sizes
    raw.o(i.raw_new) refers to raw.o(.data) for raw_pcbs
    raw.o(i.raw_remove) refers to mem.o(i.mem_free) for mem_free
    raw.o(i.raw_remove) refers to raw.o(.data) for raw_pcbs
    raw.o(i.raw_send) refers to raw.o(i.raw_sendto) for raw_sendto
    raw.o(i.raw_sendto) refers to pbuf.o(i.pbuf_header) for pbuf_header
    raw.o(i.raw_sendto) refers to pbuf.o(i.pbuf_alloc) for pbuf_alloc
    raw.o(i.raw_sendto) refers to pbuf.o(i.pbuf_chain) for pbuf_chain
    raw.o(i.raw_sendto) refers to printf3.o(i.__0printf$3) for __2printf
    raw.o(i.raw_sendto) refers to ip.o(i.ip_route) for ip_route
    raw.o(i.raw_sendto) refers to pbuf.o(i.pbuf_free) for pbuf_free
    raw.o(i.raw_sendto) refers to ip.o(i.ip_output_if) for ip_output_if
    tcp.o(i.tcp_abandon) refers to printf3.o(i.__0printf$3) for __2printf
    tcp.o(i.tcp_abandon) refers to tcp.o(i.tcp_pcb_remove) for tcp_pcb_remove
    tcp.o(i.tcp_abandon) refers to mem.o(i.mem_free) for mem_free
    tcp.o(i.tcp_abandon) refers to tcp.o(i.tcp_segs_free) for tcp_segs_free
    tcp.o(i.tcp_abandon) refers to tcp_out.o(i.tcp_rst) for tcp_rst
    tcp.o(i.tcp_abandon) refers to tcp.o(.data) for tcp_tw_pcbs
    tcp.o(i.tcp_abort) refers to tcp.o(i.tcp_abandon) for tcp_abandon
    tcp.o(i.tcp_alloc) refers to mem.o(i.mem_malloc) for mem_malloc
    tcp.o(i.tcp_alloc) refers to tcp.o(i.tcp_kill_timewait) for tcp_kill_timewait
    tcp.o(i.tcp_alloc) refers to tcp.o(i.tcp_kill_prio) for tcp_kill_prio
    tcp.o(i.tcp_alloc) refers to memseta.o(.text) for __aeabi_memclr4
    tcp.o(i.tcp_alloc) refers to tcp.o(i.tcp_next_iss) for tcp_next_iss
    tcp.o(i.tcp_alloc) refers to memp.o(.constdata) for memp_sizes
    tcp.o(i.tcp_alloc) refers to tcp.o(.data) for tcp_ticks
    tcp.o(i.tcp_alloc) refers to tcp.o(i.tcp_recv_null) for tcp_recv_null
    tcp.o(i.tcp_bind) refers to printf3.o(i.__0printf$3) for __2printf
    tcp.o(i.tcp_bind) refers to tcp.o(i.tcp_new_port) for tcp_new_port
    tcp.o(i.tcp_bind) refers to timers.o(i.tcp_timer_needed) for tcp_timer_needed
    tcp.o(i.tcp_bind) refers to tcp.o(.constdata) for tcp_pcb_lists
    tcp.o(i.tcp_bind) refers to tcp.o(.data) for tcp_bound_pcbs
    tcp.o(i.tcp_close) refers to tcp.o(i.tcp_close_shutdown) for tcp_close_shutdown
    tcp.o(i.tcp_close_shutdown) refers to printf3.o(i.__0printf$3) for __2printf
    tcp.o(i.tcp_close_shutdown) refers to tcp_out.o(i.tcp_rst) for tcp_rst
    tcp.o(i.tcp_close_shutdown) refers to tcp.o(i.tcp_pcb_purge) for tcp_pcb_purge
    tcp.o(i.tcp_close_shutdown) refers to timers.o(i.tcp_timer_needed) for tcp_timer_needed
    tcp.o(i.tcp_close_shutdown) refers to mem.o(i.mem_free) for mem_free
    tcp.o(i.tcp_close_shutdown) refers to tcp.o(i.tcp_pcb_remove) for tcp_pcb_remove
    tcp.o(i.tcp_close_shutdown) refers to tcp_out.o(i.tcp_send_fin) for tcp_send_fin
    tcp.o(i.tcp_close_shutdown) refers to tcp_out.o(i.tcp_output) for tcp_output
    tcp.o(i.tcp_close_shutdown) refers to tcp.o(.data) for tcp_active_pcbs
    tcp.o(i.tcp_connect) refers to printf3.o(i.__0printf$3) for __2printf
    tcp.o(i.tcp_connect) refers to ip.o(i.ip_route) for ip_route
    tcp.o(i.tcp_connect) refers to tcp.o(i.tcp_new_port) for tcp_new_port
    tcp.o(i.tcp_connect) refers to tcp.o(i.tcp_next_iss) for tcp_next_iss
    tcp.o(i.tcp_connect) refers to tcp.o(i.tcp_eff_send_mss) for tcp_eff_send_mss
    tcp.o(i.tcp_connect) refers to tcp_out.o(i.tcp_enqueue_flags) for tcp_enqueue_flags
    tcp.o(i.tcp_connect) refers to timers.o(i.tcp_timer_needed) for tcp_timer_needed
    tcp.o(i.tcp_connect) refers to tcp_out.o(i.tcp_output) for tcp_output
    tcp.o(i.tcp_connect) refers to tcp.o(.data) for tcp_bound_pcbs
    tcp.o(i.tcp_debug_state_str) refers to tcp.o(.constdata) for tcp_state_str
    tcp.o(i.tcp_eff_send_mss) refers to ip.o(i.ip_route) for ip_route
    tcp.o(i.tcp_err) refers to printf3.o(i.__0printf$3) for __2printf
    tcp.o(i.tcp_fasttmr) refers to tcp_out.o(i.tcp_output) for tcp_output
    tcp.o(i.tcp_fasttmr) refers to tcp.o(i.tcp_process_refused_data) for tcp_process_refused_data
    tcp.o(i.tcp_fasttmr) refers to tcp.o(.data) for tcp_timer_ctr
    tcp.o(i.tcp_kill_prio) refers to tcp.o(i.tcp_abort) for tcp_abort
    tcp.o(i.tcp_kill_prio) refers to tcp.o(.data) for tcp_active_pcbs
    tcp.o(i.tcp_kill_timewait) refers to tcp.o(i.tcp_abort) for tcp_abort
    tcp.o(i.tcp_kill_timewait) refers to tcp.o(.data) for tcp_tw_pcbs
    tcp.o(i.tcp_listen_with_backlog) refers to printf3.o(i.__0printf$3) for __2printf
    tcp.o(i.tcp_listen_with_backlog) refers to mem.o(i.mem_malloc) for mem_malloc
    tcp.o(i.tcp_listen_with_backlog) refers to mem.o(i.mem_free) for mem_free
    tcp.o(i.tcp_listen_with_backlog) refers to timers.o(i.tcp_timer_needed) for tcp_timer_needed
    tcp.o(i.tcp_listen_with_backlog) refers to memp.o(.constdata) for memp_sizes
    tcp.o(i.tcp_listen_with_backlog) refers to tcp.o(.data) for tcp_bound_pcbs
    tcp.o(i.tcp_listen_with_backlog) refers to tcp.o(i.tcp_accept_null) for tcp_accept_null
    tcp.o(i.tcp_new) refers to tcp.o(i.tcp_alloc) for tcp_alloc
    tcp.o(i.tcp_new_port) refers to tcp.o(.data) for tcp_port
    tcp.o(i.tcp_new_port) refers to tcp.o(.constdata) for tcp_pcb_lists
    tcp.o(i.tcp_next_iss) refers to tcp.o(.data) for iss
    tcp.o(i.tcp_pcb_purge) refers to printf3.o(i.__0printf$3) for __2printf
    tcp.o(i.tcp_pcb_purge) refers to pbuf.o(i.pbuf_free) for pbuf_free
    tcp.o(i.tcp_pcb_purge) refers to tcp.o(i.tcp_segs_free) for tcp_segs_free
    tcp.o(i.tcp_pcb_purge) refers to tcp.o(.data) for tcp_listen_pcbs
    tcp.o(i.tcp_pcb_purge) refers to tcp.o(.conststring) for .conststring
    tcp.o(i.tcp_pcb_remove) refers to tcp.o(i.tcp_pcb_purge) for tcp_pcb_purge
    tcp.o(i.tcp_pcb_remove) refers to tcp_out.o(i.tcp_output) for tcp_output
    tcp.o(i.tcp_pcb_remove) refers to printf3.o(i.__0printf$3) for __2printf
    tcp.o(i.tcp_pcb_remove) refers to tcp.o(.data) for tcp_tmp_pcb
    tcp.o(i.tcp_poll) refers to printf3.o(i.__0printf$3) for __2printf
    tcp.o(i.tcp_process_refused_data) refers to tcp.o(i.tcp_recv_null) for tcp_recv_null
    tcp.o(i.tcp_recv) refers to printf3.o(i.__0printf$3) for __2printf
    tcp.o(i.tcp_recv_null) refers to tcp.o(i.tcp_recved) for tcp_recved
    tcp.o(i.tcp_recv_null) refers to pbuf.o(i.pbuf_free) for pbuf_free
    tcp.o(i.tcp_recv_null) refers to tcp.o(i.tcp_close) for tcp_close
    tcp.o(i.tcp_recved) refers to printf3.o(i.__0printf$3) for __2printf
    tcp.o(i.tcp_recved) refers to tcp.o(i.tcp_update_rcv_ann_wnd) for tcp_update_rcv_ann_wnd
    tcp.o(i.tcp_recved) refers to tcp_out.o(i.tcp_output) for tcp_output
    tcp.o(i.tcp_seg_free) refers to pbuf.o(i.pbuf_free) for pbuf_free
    tcp.o(i.tcp_seg_free) refers to mem.o(i.mem_free) for mem_free
    tcp.o(i.tcp_segs_free) refers to tcp.o(i.tcp_seg_free) for tcp_seg_free
    tcp.o(i.tcp_sent) refers to printf3.o(i.__0printf$3) for __2printf
    tcp.o(i.tcp_shutdown) refers to tcp.o(i.tcp_close_shutdown) for tcp_close_shutdown
    tcp.o(i.tcp_shutdown) refers to pbuf.o(i.pbuf_free) for pbuf_free
    tcp.o(i.tcp_slowtmr) refers to printf3.o(i.__0printf$3) for __2printf
    tcp.o(i.tcp_slowtmr) refers to tcp_out.o(i.tcp_zero_window_probe) for tcp_zero_window_probe
    tcp.o(i.tcp_slowtmr) refers to tcp_out.o(i.tcp_rexmit_rto) for tcp_rexmit_rto
    tcp.o(i.tcp_slowtmr) refers to tcp_out.o(i.tcp_keepalive) for tcp_keepalive
    tcp.o(i.tcp_slowtmr) refers to tcp.o(i.tcp_pcb_purge) for tcp_pcb_purge
    tcp.o(i.tcp_slowtmr) refers to tcp_out.o(i.tcp_rst) for tcp_rst
    tcp.o(i.tcp_slowtmr) refers to mem.o(i.mem_free) for mem_free
    tcp.o(i.tcp_slowtmr) refers to tcp_out.o(i.tcp_output) for tcp_output
    tcp.o(i.tcp_slowtmr) refers to tcp.o(.data) for tcp_ticks
    tcp.o(i.tcp_slowtmr) refers to tcp.o(.constdata) for tcp_persist_backoff
    tcp.o(i.tcp_tmr) refers to tcp.o(i.tcp_fasttmr) for tcp_fasttmr
    tcp.o(i.tcp_tmr) refers to tcp.o(i.tcp_slowtmr) for tcp_slowtmr
    tcp.o(i.tcp_tmr) refers to tcp.o(.data) for tcp_timer
    tcp.o(i.tcp_update_rcv_ann_wnd) refers to printf3.o(i.__0printf$3) for __2printf
    tcp.o(.constdata) refers to tcp.o(.conststring) for .conststring
    tcp.o(.constdata) refers to tcp.o(.data) for tcp_listen_pcbs
    tcp_in.o(i.tcp_input) refers to pbuf.o(i.pbuf_header) for pbuf_header
    tcp_in.o(i.tcp_input) refers to ip_addr.o(i.ip4_addr_isbroadcast) for ip4_addr_isbroadcast
    tcp_in.o(i.tcp_input) refers to inet_chksum.o(i.inet_chksum_pseudo) for inet_chksum_pseudo
    tcp_in.o(i.tcp_input) refers to def.o(i.lwip_ntohs) for lwip_ntohs
    tcp_in.o(i.tcp_input) refers to def.o(i.lwip_ntohl) for lwip_ntohl
    tcp_in.o(i.tcp_input) refers to printf3.o(i.__0printf$3) for __2printf
    tcp_in.o(i.tcp_input) refers to tcp_in.o(i.tcp_timewait_input) for tcp_timewait_input
    tcp_in.o(i.tcp_input) refers to pbuf.o(i.pbuf_free) for pbuf_free
    tcp_in.o(i.tcp_input) refers to tcp_in.o(i.tcp_listen_input) for tcp_listen_input
    tcp_in.o(i.tcp_input) refers to tcp.o(i.tcp_process_refused_data) for tcp_process_refused_data
    tcp_in.o(i.tcp_input) refers to tcp_in.o(i.tcp_process) for tcp_process
    tcp_in.o(i.tcp_input) refers to tcp.o(i.tcp_pcb_remove) for tcp_pcb_remove
    tcp_in.o(i.tcp_input) refers to mem.o(i.mem_free) for mem_free
    tcp_in.o(i.tcp_input) refers to stats.o(.bss) for lwip_stats
    tcp_in.o(i.tcp_input) refers to tcp_in.o(.data) for iphdr
    tcp_in.o(i.tcp_input) refers to ip.o(.data) for current_iphdr_dest
    tcp_in.o(i.tcp_input) refers to tcp.o(.data) for tcp_active_pcbs
    tcp_in.o(i.tcp_input) refers to tcp_in.o(.bss) for inseg
    tcp_in.o(i.tcp_input) refers to tcp.o(i.tcp_abort) for tcp_abort
    tcp_in.o(i.tcp_input) refers to tcp.o(i.tcp_recv_null) for tcp_recv_null
    tcp_in.o(i.tcp_input) refers to tcp_out.o(i.tcp_output) for tcp_output
    tcp_in.o(i.tcp_input) refers to tcp_out.o(i.tcp_rst) for tcp_rst
    tcp_in.o(i.tcp_listen_input) refers to tcp_out.o(i.tcp_rst) for tcp_rst
    tcp_in.o(i.tcp_listen_input) refers to tcp.o(i.tcp_alloc) for tcp_alloc
    tcp_in.o(i.tcp_listen_input) refers to timers.o(i.tcp_timer_needed) for tcp_timer_needed
    tcp_in.o(i.tcp_listen_input) refers to tcp_in.o(i.tcp_parseopt) for tcp_parseopt
    tcp_in.o(i.tcp_listen_input) refers to tcp.o(i.tcp_eff_send_mss) for tcp_eff_send_mss
    tcp_in.o(i.tcp_listen_input) refers to tcp_out.o(i.tcp_enqueue_flags) for tcp_enqueue_flags
    tcp_in.o(i.tcp_listen_input) refers to tcp.o(i.tcp_abandon) for tcp_abandon
    tcp_in.o(i.tcp_listen_input) refers to tcp_out.o(i.tcp_output) for tcp_output
    tcp_in.o(i.tcp_listen_input) refers to tcp_in.o(.data) for flags
    tcp_in.o(i.tcp_listen_input) refers to ip.o(.data) for current_iphdr_src
    tcp_in.o(i.tcp_listen_input) refers to stats.o(.bss) for lwip_stats
    tcp_in.o(i.tcp_listen_input) refers to tcp.o(.data) for tcp_active_pcbs
    tcp_in.o(i.tcp_parseopt) refers to def.o(i.lwip_ntohs) for lwip_ntohs
    tcp_in.o(i.tcp_parseopt) refers to tcp_in.o(.data) for tcphdr
    tcp_in.o(i.tcp_process) refers to printf3.o(i.__0printf$3) for __2printf
    tcp_in.o(i.tcp_process) refers to tcp_in.o(i.tcp_parseopt) for tcp_parseopt
    tcp_in.o(i.tcp_process) refers to def.o(i.lwip_ntohl) for lwip_ntohl
    tcp_in.o(i.tcp_process) refers to tcp.o(i.tcp_eff_send_mss) for tcp_eff_send_mss
    tcp_in.o(i.tcp_process) refers to tcp.o(i.tcp_seg_free) for tcp_seg_free
    tcp_in.o(i.tcp_process) refers to tcp_out.o(i.tcp_rst) for tcp_rst
    tcp_in.o(i.tcp_process) refers to tcp.o(i.tcp_abort) for tcp_abort
    tcp_in.o(i.tcp_process) refers to tcp_in.o(i.tcp_receive) for tcp_receive
    tcp_in.o(i.tcp_process) refers to tcp_out.o(i.tcp_rexmit) for tcp_rexmit
    tcp_in.o(i.tcp_process) refers to tcp.o(i.tcp_pcb_purge) for tcp_pcb_purge
    tcp_in.o(i.tcp_process) refers to tcp_in.o(.data) for flags
    tcp_in.o(i.tcp_process) refers to tcp.o(.data) for tcp_ticks
    tcp_in.o(i.tcp_process) refers to ip.o(.data) for current_iphdr_src
    tcp_in.o(i.tcp_process) refers to timers.o(i.tcp_timer_needed) for tcp_timer_needed
    tcp_in.o(i.tcp_receive) refers to printf3.o(i.__0printf$3) for __2printf
    tcp_in.o(i.tcp_receive) refers to tcp_out.o(i.tcp_rexmit_fast) for tcp_rexmit_fast
    tcp_in.o(i.tcp_receive) refers to pbuf.o(i.pbuf_clen) for pbuf_clen
    tcp_in.o(i.tcp_receive) refers to def.o(i.lwip_ntohs) for lwip_ntohs
    tcp_in.o(i.tcp_receive) refers to tcp.o(i.tcp_seg_free) for tcp_seg_free
    tcp_in.o(i.tcp_receive) refers to def.o(i.lwip_ntohl) for lwip_ntohl
    tcp_in.o(i.tcp_receive) refers to tcp_in.o(.data) for flags
    tcp_in.o(i.tcp_receive) refers to pbuf.o(i.pbuf_header) for pbuf_header
    tcp_in.o(i.tcp_receive) refers to def.o(i.lwip_htons) for lwip_htons
    tcp_in.o(i.tcp_receive) refers to pbuf.o(i.pbuf_realloc) for pbuf_realloc
    tcp_in.o(i.tcp_receive) refers to tcp.o(i.tcp_update_rcv_ann_wnd) for tcp_update_rcv_ann_wnd
    tcp_in.o(i.tcp_receive) refers to tcp_out.o(i.tcp_send_empty_ack) for tcp_send_empty_ack
    tcp_in.o(i.tcp_receive) refers to tcp.o(.data) for tcp_ticks
    tcp_in.o(i.tcp_receive) refers to tcp_in.o(.bss) for inseg
    tcp_in.o(i.tcp_timewait_input) refers to tcp_out.o(i.tcp_rst) for tcp_rst
    tcp_in.o(i.tcp_timewait_input) refers to tcp_out.o(i.tcp_output) for tcp_output
    tcp_in.o(i.tcp_timewait_input) refers to tcp_in.o(.data) for flags
    tcp_in.o(i.tcp_timewait_input) refers to ip.o(.data) for current_iphdr_src
    tcp_in.o(i.tcp_timewait_input) refers to tcp.o(.data) for tcp_ticks
    tcp_out.o(i.tcp_create_segment) refers to mem.o(i.mem_malloc) for mem_malloc
    tcp_out.o(i.tcp_create_segment) refers to pbuf.o(i.pbuf_free) for pbuf_free
    tcp_out.o(i.tcp_create_segment) refers to pbuf.o(i.pbuf_header) for pbuf_header
    tcp_out.o(i.tcp_create_segment) refers to tcp.o(i.tcp_seg_free) for tcp_seg_free
    tcp_out.o(i.tcp_create_segment) refers to def.o(i.lwip_htons) for lwip_htons
    tcp_out.o(i.tcp_create_segment) refers to def.o(i.lwip_htonl) for lwip_htonl
    tcp_out.o(i.tcp_create_segment) refers to memp.o(.constdata) for memp_sizes
    tcp_out.o(i.tcp_create_segment) refers to stats.o(.bss) for lwip_stats
    tcp_out.o(i.tcp_enqueue_flags) refers to printf3.o(i.__0printf$3) for __2printf
    tcp_out.o(i.tcp_enqueue_flags) refers to pbuf.o(i.pbuf_alloc) for pbuf_alloc
    tcp_out.o(i.tcp_enqueue_flags) refers to tcp_out.o(i.tcp_create_segment) for tcp_create_segment
    tcp_out.o(i.tcp_enqueue_flags) refers to pbuf.o(i.pbuf_clen) for pbuf_clen
    tcp_out.o(i.tcp_enqueue_flags) refers to tcp_out.o(.conststring) for .conststring
    tcp_out.o(i.tcp_enqueue_flags) refers to stats.o(.bss) for lwip_stats
    tcp_out.o(i.tcp_keepalive) refers to def.o(i.lwip_htonl) for lwip_htonl
    tcp_out.o(i.tcp_keepalive) refers to tcp_out.o(i.tcp_output_alloc_header) for tcp_output_alloc_header
    tcp_out.o(i.tcp_keepalive) refers to inet_chksum.o(i.inet_chksum_pseudo) for inet_chksum_pseudo
    tcp_out.o(i.tcp_keepalive) refers to ip.o(i.ip_output_hinted) for ip_output_hinted
    tcp_out.o(i.tcp_keepalive) refers to pbuf.o(i.pbuf_free) for pbuf_free
    tcp_out.o(i.tcp_keepalive) refers to stats.o(.bss) for lwip_stats
    tcp_out.o(i.tcp_output) refers to printf3.o(i.__0printf$3) for __2printf
    tcp_out.o(i.tcp_output) refers to def.o(i.lwip_ntohl) for lwip_ntohl
    tcp_out.o(i.tcp_output) refers to tcp_out.o(i.tcp_send_empty_ack) for tcp_send_empty_ack
    tcp_out.o(i.tcp_output) refers to def.o(i.lwip_ntohs) for lwip_ntohs
    tcp_out.o(i.tcp_output) refers to def.o(i.lwip_htons) for lwip_htons
    tcp_out.o(i.tcp_output) refers to tcp_out.o(i.tcp_output_segment) for tcp_output_segment
    tcp_out.o(i.tcp_output) refers to tcp.o(i.tcp_seg_free) for tcp_seg_free
    tcp_out.o(i.tcp_output) refers to tcp_in.o(.data) for tcp_input_pcb
    tcp_out.o(i.tcp_output_alloc_header) refers to pbuf.o(i.pbuf_alloc) for pbuf_alloc
    tcp_out.o(i.tcp_output_alloc_header) refers to printf3.o(i.__0printf$3) for __2printf
    tcp_out.o(i.tcp_output_alloc_header) refers to def.o(i.lwip_htons) for lwip_htons
    tcp_out.o(i.tcp_output_alloc_header) refers to def.o(i.lwip_htonl) for lwip_htonl
    tcp_out.o(i.tcp_output_segment) refers to def.o(i.lwip_htonl) for lwip_htonl
    tcp_out.o(i.tcp_output_segment) refers to def.o(i.lwip_htons) for lwip_htons
    tcp_out.o(i.tcp_output_segment) refers to tcp.o(i.tcp_eff_send_mss) for tcp_eff_send_mss
    tcp_out.o(i.tcp_output_segment) refers to ip.o(i.ip_route) for ip_route
    tcp_out.o(i.tcp_output_segment) refers to def.o(i.lwip_ntohl) for lwip_ntohl
    tcp_out.o(i.tcp_output_segment) refers to inet_chksum.o(i.inet_chksum_pseudo) for inet_chksum_pseudo
    tcp_out.o(i.tcp_output_segment) refers to ip.o(i.ip_output_hinted) for ip_output_hinted
    tcp_out.o(i.tcp_output_segment) refers to tcp.o(.data) for tcp_ticks
    tcp_out.o(i.tcp_output_segment) refers to stats.o(.bss) for lwip_stats
    tcp_out.o(i.tcp_pbuf_prealloc) refers to pbuf.o(i.pbuf_alloc) for pbuf_alloc
    tcp_out.o(i.tcp_pbuf_prealloc) refers to printf3.o(i.__0printf$3) for __2printf
    tcp_out.o(i.tcp_rexmit) refers to def.o(i.lwip_ntohl) for lwip_ntohl
    tcp_out.o(i.tcp_rexmit_fast) refers to tcp_out.o(i.tcp_rexmit) for tcp_rexmit
    tcp_out.o(i.tcp_rexmit_rto) refers to tcp_out.o(i.tcp_output) for tcp_output
    tcp_out.o(i.tcp_rst) refers to pbuf.o(i.pbuf_alloc) for pbuf_alloc
    tcp_out.o(i.tcp_rst) refers to printf3.o(i.__0printf$3) for __2printf
    tcp_out.o(i.tcp_rst) refers to def.o(i.lwip_htons) for lwip_htons
    tcp_out.o(i.tcp_rst) refers to def.o(i.lwip_htonl) for lwip_htonl
    tcp_out.o(i.tcp_rst) refers to inet_chksum.o(i.inet_chksum_pseudo) for inet_chksum_pseudo
    tcp_out.o(i.tcp_rst) refers to ip.o(i.ip_output) for ip_output
    tcp_out.o(i.tcp_rst) refers to pbuf.o(i.pbuf_free) for pbuf_free
    tcp_out.o(i.tcp_rst) refers to stats.o(.bss) for lwip_stats
    tcp_out.o(i.tcp_send_empty_ack) refers to def.o(i.lwip_htonl) for lwip_htonl
    tcp_out.o(i.tcp_send_empty_ack) refers to tcp_out.o(i.tcp_output_alloc_header) for tcp_output_alloc_header
    tcp_out.o(i.tcp_send_empty_ack) refers to inet_chksum.o(i.inet_chksum_pseudo) for inet_chksum_pseudo
    tcp_out.o(i.tcp_send_empty_ack) refers to ip.o(i.ip_output_hinted) for ip_output_hinted
    tcp_out.o(i.tcp_send_empty_ack) refers to pbuf.o(i.pbuf_free) for pbuf_free
    tcp_out.o(i.tcp_send_fin) refers to def.o(i.lwip_ntohs) for lwip_ntohs
    tcp_out.o(i.tcp_send_fin) refers to def.o(i.lwip_htons) for lwip_htons
    tcp_out.o(i.tcp_send_fin) refers to tcp_out.o(i.tcp_enqueue_flags) for tcp_enqueue_flags
    tcp_out.o(i.tcp_write) refers to printf3.o(i.__0printf$3) for __2printf
    tcp_out.o(i.tcp_write) refers to tcp_out.o(i.tcp_write_checks) for tcp_write_checks
    tcp_out.o(i.tcp_write) refers to tcp_out.o(i.tcp_pbuf_prealloc) for tcp_pbuf_prealloc
    tcp_out.o(i.tcp_write) refers to memcpya.o(.text) for __aeabi_memcpy
    tcp_out.o(i.tcp_write) refers to pbuf.o(i.pbuf_alloc) for pbuf_alloc
    tcp_out.o(i.tcp_write) refers to pbuf.o(i.pbuf_clen) for pbuf_clen
    tcp_out.o(i.tcp_write) refers to pbuf.o(i.pbuf_free) for pbuf_free
    tcp_out.o(i.tcp_write) refers to pbuf.o(i.pbuf_cat) for pbuf_cat
    tcp_out.o(i.tcp_write) refers to tcp_out.o(i.tcp_create_segment) for tcp_create_segment
    tcp_out.o(i.tcp_write) refers to def.o(i.lwip_htons) for lwip_htons
    tcp_out.o(i.tcp_write) refers to tcp.o(i.tcp_segs_free) for tcp_segs_free
    tcp_out.o(i.tcp_write) refers to stats.o(.bss) for lwip_stats
    tcp_out.o(i.tcp_write_checks) refers to printf3.o(i.__0printf$3) for __2printf
    tcp_out.o(i.tcp_write_checks) refers to stats.o(.bss) for lwip_stats
    tcp_out.o(i.tcp_zero_window_probe) refers to def.o(i.lwip_ntohs) for lwip_ntohs
    tcp_out.o(i.tcp_zero_window_probe) refers to tcp_out.o(i.tcp_output_alloc_header) for tcp_output_alloc_header
    tcp_out.o(i.tcp_zero_window_probe) refers to def.o(i.lwip_htons) for lwip_htons
    tcp_out.o(i.tcp_zero_window_probe) refers to pbuf.o(i.pbuf_copy_partial) for pbuf_copy_partial
    tcp_out.o(i.tcp_zero_window_probe) refers to inet_chksum.o(i.inet_chksum_pseudo) for inet_chksum_pseudo
    tcp_out.o(i.tcp_zero_window_probe) refers to ip.o(i.ip_output_hinted) for ip_output_hinted
    tcp_out.o(i.tcp_zero_window_probe) refers to pbuf.o(i.pbuf_free) for pbuf_free
    tcp_out.o(i.tcp_zero_window_probe) refers to stats.o(.bss) for lwip_stats
    timers.o(i.dns_timer) refers to dns.o(i.dns_tmr) for dns_tmr
    timers.o(i.dns_timer) refers to timers.o(i.sys_timeout) for sys_timeout
    timers.o(i.ip_reass_timer) refers to ip_frag.o(i.ip_reass_tmr) for ip_reass_tmr
    timers.o(i.ip_reass_timer) refers to timers.o(i.sys_timeout) for sys_timeout
    timers.o(i.sys_check_timeouts) refers to sys_arch.o(i.sys_now) for sys_now
    timers.o(i.sys_check_timeouts) refers to mem.o(i.mem_free) for mem_free
    timers.o(i.sys_check_timeouts) refers to timers.o(.data) for next_timeout
    timers.o(i.sys_restart_timeouts) refers to sys_arch.o(i.sys_now) for sys_now
    timers.o(i.sys_restart_timeouts) refers to timers.o(.data) for timeouts_last_time
    timers.o(i.sys_timeout) refers to mem.o(i.mem_malloc) for mem_malloc
    timers.o(i.sys_timeout) refers to printf3.o(i.__0printf$3) for __2printf
    timers.o(i.sys_timeout) refers to memp.o(.constdata) for memp_sizes
    timers.o(i.sys_timeout) refers to timers.o(.data) for next_timeout
    timers.o(i.sys_timeouts_init) refers to timers.o(i.sys_timeout) for sys_timeout
    timers.o(i.sys_timeouts_init) refers to sys_arch.o(i.sys_now) for sys_now
    timers.o(i.sys_timeouts_init) refers to timers.o(i.ip_reass_timer) for ip_reass_timer
    timers.o(i.sys_timeouts_init) refers to timers.o(i.dns_timer) for dns_timer
    timers.o(i.sys_timeouts_init) refers to timers.o(.data) for timeouts_last_time
    timers.o(i.sys_untimeout) refers to mem.o(i.mem_free) for mem_free
    timers.o(i.sys_untimeout) refers to timers.o(.data) for next_timeout
    timers.o(i.tcp_timer_needed) refers to timers.o(i.sys_timeout) for sys_timeout
    timers.o(i.tcp_timer_needed) refers to timers.o(.data) for tcpip_tcp_timer_active
    timers.o(i.tcp_timer_needed) refers to tcp.o(.data) for tcp_active_pcbs
    timers.o(i.tcp_timer_needed) refers to timers.o(i.tcpip_tcp_timer) for tcpip_tcp_timer
    timers.o(i.tcpip_tcp_timer) refers to tcp.o(i.tcp_tmr) for tcp_tmr
    timers.o(i.tcpip_tcp_timer) refers to timers.o(i.sys_timeout) for sys_timeout
    timers.o(i.tcpip_tcp_timer) refers to tcp.o(.data) for tcp_active_pcbs
    timers.o(i.tcpip_tcp_timer) refers to timers.o(.data) for tcpip_tcp_timer_active
    udp.o(i.udp_bind) refers to printf3.o(i.__0printf$3) for __2printf
    udp.o(i.udp_bind) refers to udp.o(i.udp_new_port) for udp_new_port
    udp.o(i.udp_bind) refers to udp.o(.data) for udp_pcbs
    udp.o(i.udp_connect) refers to udp.o(i.udp_bind) for udp_bind
    udp.o(i.udp_connect) refers to udp.o(.data) for udp_pcbs
    udp.o(i.udp_input) refers to pbuf.o(i.pbuf_header) for pbuf_header
    udp.o(i.udp_input) refers to pbuf.o(i.pbuf_free) for pbuf_free
    udp.o(i.udp_input) refers to ip_addr.o(i.ip4_addr_isbroadcast) for ip4_addr_isbroadcast
    udp.o(i.udp_input) refers to def.o(i.lwip_ntohs) for lwip_ntohs
    udp.o(i.udp_input) refers to inet_chksum.o(i.inet_chksum_pseudo) for inet_chksum_pseudo
    udp.o(i.udp_input) refers to printf3.o(i.__0printf$3) for __2printf
    udp.o(i.udp_input) refers to stats.o(.bss) for lwip_stats
    udp.o(i.udp_input) refers to ip.o(.data) for current_iphdr_dest
    udp.o(i.udp_input) refers to udp.o(.data) for udp_pcbs
    udp.o(i.udp_new) refers to mem.o(i.mem_malloc) for mem_malloc
    udp.o(i.udp_new) refers to memseta.o(.text) for __aeabi_memclr4
    udp.o(i.udp_new) refers to memp.o(.constdata) for memp_sizes
    udp.o(i.udp_new_port) refers to udp.o(.data) for udp_port
    udp.o(i.udp_remove) refers to mem.o(i.mem_free) for mem_free
    udp.o(i.udp_remove) refers to udp.o(.data) for udp_pcbs
    udp.o(i.udp_send) refers to udp.o(i.udp_sendto) for udp_sendto
    udp.o(i.udp_sendto) refers to ip.o(i.ip_route) for ip_route
    udp.o(i.udp_sendto) refers to udp.o(i.udp_sendto_if) for udp_sendto_if
    udp.o(i.udp_sendto) refers to stats.o(.bss) for lwip_stats
    udp.o(i.udp_sendto_if) refers to udp.o(i.udp_bind) for udp_bind
    udp.o(i.udp_sendto_if) refers to pbuf.o(i.pbuf_header) for pbuf_header
    udp.o(i.udp_sendto_if) refers to pbuf.o(i.pbuf_alloc) for pbuf_alloc
    udp.o(i.udp_sendto_if) refers to pbuf.o(i.pbuf_chain) for pbuf_chain
    udp.o(i.udp_sendto_if) refers to printf3.o(i.__0printf$3) for __2printf
    udp.o(i.udp_sendto_if) refers to def.o(i.lwip_htons) for lwip_htons
    udp.o(i.udp_sendto_if) refers to pbuf.o(i.pbuf_free) for pbuf_free
    udp.o(i.udp_sendto_if) refers to inet_chksum.o(i.inet_chksum_pseudo) for inet_chksum_pseudo
    udp.o(i.udp_sendto_if) refers to ip.o(i.ip_output_if) for ip_output_if
    udp.o(i.udp_sendto_if) refers to stats.o(.bss) for lwip_stats
    inet_chksum.o(i.inet_chksum) refers to inet_chksum.o(i.lwip_standard_chksum) for lwip_standard_chksum
    inet_chksum.o(i.inet_chksum_pbuf) refers to inet_chksum.o(i.lwip_standard_chksum) for lwip_standard_chksum
    inet_chksum.o(i.inet_chksum_pseudo) refers to inet_chksum.o(i.lwip_standard_chksum) for lwip_standard_chksum
    inet_chksum.o(i.inet_chksum_pseudo) refers to def.o(i.lwip_htons) for lwip_htons
    inet_chksum.o(i.inet_chksum_pseudo_partial) refers to inet_chksum.o(i.lwip_standard_chksum) for lwip_standard_chksum
    inet_chksum.o(i.inet_chksum_pseudo_partial) refers to printf3.o(i.__0printf$3) for __2printf
    inet_chksum.o(i.inet_chksum_pseudo_partial) refers to def.o(i.lwip_htons) for lwip_htons
    ip.o(i.ip_input) refers to pbuf.o(i.pbuf_free) for pbuf_free
    ip.o(i.ip_input) refers to def.o(i.lwip_ntohs) for lwip_ntohs
    ip.o(i.ip_input) refers to inet_chksum.o(i.inet_chksum) for inet_chksum
    ip.o(i.ip_input) refers to pbuf.o(i.pbuf_realloc) for pbuf_realloc
    ip.o(i.ip_input) refers to ip_addr.o(i.ip4_addr_isbroadcast) for ip4_addr_isbroadcast
    ip.o(i.ip_input) refers to ip_frag.o(i.ip_reass) for ip_reass
    ip.o(i.ip_input) refers to raw.o(i.raw_input) for raw_input
    ip.o(i.ip_input) refers to udp.o(i.udp_input) for udp_input
    ip.o(i.ip_input) refers to tcp_in.o(i.tcp_input) for tcp_input
    ip.o(i.ip_input) refers to stats.o(.bss) for lwip_stats
    ip.o(i.ip_input) refers to ip.o(.data) for current_iphdr_dest
    ip.o(i.ip_input) refers to netif.o(.data) for netif_list
    ip.o(i.ip_output) refers to printf3.o(i.__0printf$3) for __2printf
    ip.o(i.ip_output) refers to ip.o(i.ip_route) for ip_route
    ip.o(i.ip_output) refers to ip.o(i.ip_output_if) for ip_output_if
    ip.o(i.ip_output) refers to stats.o(.bss) for lwip_stats
    ip.o(i.ip_output_hinted) refers to printf3.o(i.__0printf$3) for __2printf
    ip.o(i.ip_output_hinted) refers to ip.o(i.ip_route) for ip_route
    ip.o(i.ip_output_hinted) refers to ip.o(i.ip_output_if) for ip_output_if
    ip.o(i.ip_output_hinted) refers to stats.o(.bss) for lwip_stats
    ip.o(i.ip_output_if) refers to printf3.o(i.__0printf$3) for __2printf
    ip.o(i.ip_output_if) refers to pbuf.o(i.pbuf_header) for pbuf_header
    ip.o(i.ip_output_if) refers to def.o(i.lwip_htons) for lwip_htons
    ip.o(i.ip_output_if) refers to ip_frag.o(i.ip_frag) for ip_frag
    ip.o(i.ip_output_if) refers to stats.o(.bss) for lwip_stats
    ip.o(i.ip_output_if) refers to ip.o(.data) for ip_id
    ip.o(i.ip_route) refers to netif.o(.data) for netif_list
    ip.o(i.ip_route) refers to stats.o(.bss) for lwip_stats
    ip_addr.o(i.ip4_addr_netmask_valid) refers to def.o(i.lwip_htonl) for lwip_htonl
    ip_addr.o(i.ipaddr_addr) refers to ip_addr.o(i.ipaddr_aton) for ipaddr_aton
    ip_addr.o(i.ipaddr_aton) refers to printf3.o(i.__0printf$3) for __2printf
    ip_addr.o(i.ipaddr_aton) refers to def.o(i.lwip_htonl) for lwip_htonl
    ip_addr.o(i.ipaddr_ntoa) refers to ip_addr.o(i.ipaddr_ntoa_r) for ipaddr_ntoa_r
    ip_addr.o(i.ipaddr_ntoa) refers to ip_addr.o(.bss) for str
    ip_frag.o(i.ip_frag) refers to def.o(i.lwip_ntohs) for lwip_ntohs
    ip_frag.o(i.ip_frag) refers to pbuf.o(i.pbuf_alloc) for pbuf_alloc
    ip_frag.o(i.ip_frag) refers to printf3.o(i.__0printf$3) for __2printf
    ip_frag.o(i.ip_frag) refers to memcpya.o(.text) for __aeabi_memcpy
    ip_frag.o(i.ip_frag) refers to ip_frag.o(i.ip_frag_alloc_pbuf_custom_ref) for ip_frag_alloc_pbuf_custom_ref
    ip_frag.o(i.ip_frag) refers to pbuf.o(i.pbuf_free) for pbuf_free
    ip_frag.o(i.ip_frag) refers to pbuf.o(i.pbuf_alloced_custom) for pbuf_alloced_custom
    ip_frag.o(i.ip_frag) refers to ip_frag.o(i.ip_frag_free_pbuf_custom_ref) for ip_frag_free_pbuf_custom_ref
    ip_frag.o(i.ip_frag) refers to pbuf.o(i.pbuf_ref) for pbuf_ref
    ip_frag.o(i.ip_frag) refers to pbuf.o(i.pbuf_cat) for pbuf_cat
    ip_frag.o(i.ip_frag) refers to def.o(i.lwip_htons) for lwip_htons
    ip_frag.o(i.ip_frag) refers to inet_chksum.o(i.inet_chksum) for inet_chksum
    ip_frag.o(i.ip_frag) refers to ip_frag.o(i.ipfrag_free_pbuf_custom) for ipfrag_free_pbuf_custom
    ip_frag.o(i.ip_frag) refers to stats.o(.bss) for lwip_stats
    ip_frag.o(i.ip_frag_alloc_pbuf_custom_ref) refers to mem.o(i.mem_malloc) for mem_malloc
    ip_frag.o(i.ip_frag_alloc_pbuf_custom_ref) refers to memp.o(.constdata) for memp_sizes
    ip_frag.o(i.ip_frag_free_pbuf_custom_ref) refers to printf3.o(i.__0printf$3) for __2printf
    ip_frag.o(i.ip_frag_free_pbuf_custom_ref) refers to mem.o(i.mem_free) for mem_free
    ip_frag.o(i.ip_reass) refers to def.o(i.lwip_ntohs) for lwip_ntohs
    ip_frag.o(i.ip_reass) refers to pbuf.o(i.pbuf_clen) for pbuf_clen
    ip_frag.o(i.ip_reass) refers to ip_frag.o(i.ip_reass_remove_oldest_datagram) for ip_reass_remove_oldest_datagram
    ip_frag.o(i.ip_reass) refers to ip_frag.o(i.ip_reass_enqueue_new_datagram) for ip_reass_enqueue_new_datagram
    ip_frag.o(i.ip_reass) refers to memcpya.o(.text) for __aeabi_memcpy
    ip_frag.o(i.ip_reass) refers to ip_frag.o(i.ip_reass_chain_frag_into_datagram_and_validate) for ip_reass_chain_frag_into_datagram_and_validate
    ip_frag.o(i.ip_reass) refers to def.o(i.lwip_htons) for lwip_htons
    ip_frag.o(i.ip_reass) refers to inet_chksum.o(i.inet_chksum) for inet_chksum
    ip_frag.o(i.ip_reass) refers to pbuf.o(i.pbuf_header) for pbuf_header
    ip_frag.o(i.ip_reass) refers to pbuf.o(i.pbuf_cat) for pbuf_cat
    ip_frag.o(i.ip_reass) refers to ip_frag.o(i.ip_reass_dequeue_datagram) for ip_reass_dequeue_datagram
    ip_frag.o(i.ip_reass) refers to pbuf.o(i.pbuf_free) for pbuf_free
    ip_frag.o(i.ip_reass) refers to stats.o(.bss) for lwip_stats
    ip_frag.o(i.ip_reass) refers to ip_frag.o(.data) for ip_reass_pbufcount
    ip_frag.o(i.ip_reass_chain_frag_into_datagram_and_validate) refers to def.o(i.lwip_ntohs) for lwip_ntohs
    ip_frag.o(i.ip_reass_chain_frag_into_datagram_and_validate) refers to printf3.o(i.__0printf$3) for __2printf
    ip_frag.o(i.ip_reass_chain_frag_into_datagram_and_validate) refers to pbuf.o(i.pbuf_clen) for pbuf_clen
    ip_frag.o(i.ip_reass_chain_frag_into_datagram_and_validate) refers to pbuf.o(i.pbuf_free) for pbuf_free
    ip_frag.o(i.ip_reass_chain_frag_into_datagram_and_validate) refers to ip_frag.o(.data) for ip_reass_pbufcount
    ip_frag.o(i.ip_reass_dequeue_datagram) refers to printf3.o(i.__0printf$3) for __2printf
    ip_frag.o(i.ip_reass_dequeue_datagram) refers to mem.o(i.mem_free) for mem_free
    ip_frag.o(i.ip_reass_dequeue_datagram) refers to ip_frag.o(.data) for reassdatagrams
    ip_frag.o(i.ip_reass_enqueue_new_datagram) refers to mem.o(i.mem_malloc) for mem_malloc
    ip_frag.o(i.ip_reass_enqueue_new_datagram) refers to ip_frag.o(i.ip_reass_remove_oldest_datagram) for ip_reass_remove_oldest_datagram
    ip_frag.o(i.ip_reass_enqueue_new_datagram) refers to memseta.o(.text) for __aeabi_memclr4
    ip_frag.o(i.ip_reass_enqueue_new_datagram) refers to memcpya.o(.text) for __aeabi_memcpy
    ip_frag.o(i.ip_reass_enqueue_new_datagram) refers to memp.o(.constdata) for memp_sizes
    ip_frag.o(i.ip_reass_enqueue_new_datagram) refers to stats.o(.bss) for lwip_stats
    ip_frag.o(i.ip_reass_enqueue_new_datagram) refers to ip_frag.o(.data) for reassdatagrams
    ip_frag.o(i.ip_reass_free_complete_datagram) refers to printf3.o(i.__0printf$3) for __2printf
    ip_frag.o(i.ip_reass_free_complete_datagram) refers to pbuf.o(i.pbuf_clen) for pbuf_clen
    ip_frag.o(i.ip_reass_free_complete_datagram) refers to pbuf.o(i.pbuf_free) for pbuf_free
    ip_frag.o(i.ip_reass_free_complete_datagram) refers to ip_frag.o(i.ip_reass_dequeue_datagram) for ip_reass_dequeue_datagram
    ip_frag.o(i.ip_reass_free_complete_datagram) refers to ip_frag.o(.data) for ip_reass_pbufcount
    ip_frag.o(i.ip_reass_remove_oldest_datagram) refers to ip_frag.o(i.ip_reass_free_complete_datagram) for ip_reass_free_complete_datagram
    ip_frag.o(i.ip_reass_remove_oldest_datagram) refers to ip_frag.o(.data) for reassdatagrams
    ip_frag.o(i.ip_reass_tmr) refers to ip_frag.o(i.ip_reass_free_complete_datagram) for ip_reass_free_complete_datagram
    ip_frag.o(i.ip_reass_tmr) refers to ip_frag.o(.data) for reassdatagrams
    ip_frag.o(i.ipfrag_free_pbuf_custom) refers to printf3.o(i.__0printf$3) for __2printf
    ip_frag.o(i.ipfrag_free_pbuf_custom) refers to pbuf.o(i.pbuf_free) for pbuf_free
    ip_frag.o(i.ipfrag_free_pbuf_custom) refers to ip_frag.o(i.ip_frag_free_pbuf_custom_ref) for ip_frag_free_pbuf_custom_ref
    sys_arch.o(i.sys_jiffies) refers to timer.o(.data) for lwip_time
    sys_arch.o(i.sys_now) refers to timer.o(.data) for lwip_time
    startup_stm32f10x_hd.o(RESET) refers to startup_stm32f10x_hd.o(STACK) for __initial_sp
    startup_stm32f10x_hd.o(RESET) refers to startup_stm32f10x_hd.o(.text) for Reset_Handler
    startup_stm32f10x_hd.o(RESET) refers to nvic.o(i.EXTI1_IRQHandler) for EXTI1_IRQHandler
    startup_stm32f10x_hd.o(RESET) refers to nvic.o(i.EXTI3_IRQHandler) for EXTI3_IRQHandler
    startup_stm32f10x_hd.o(RESET) refers to nvic.o(i.EXTI4_IRQHandler) for EXTI4_IRQHandler
    startup_stm32f10x_hd.o(RESET) refers to timer.o(i.TIM3_IRQHandler) for TIM3_IRQHandler
    startup_stm32f10x_hd.o(RESET) refers to timer.o(i.TIM4_IRQHandler) for TIM4_IRQHandler
    startup_stm32f10x_hd.o(RESET) refers to usart1.o(i.USART1_IRQHandler) for USART1_IRQHandler
    startup_stm32f10x_hd.o(RESET) refers to usart2.o(i.USART2_IRQHandler) for USART2_IRQHandler
    startup_stm32f10x_hd.o(.text) refers to system_stm32f10x.o(i.SystemInit) for SystemInit
    startup_stm32f10x_hd.o(.text) refers to entry.o(.ARM.Collect$$$$00000000) for __main
    system_stm32f10x.o(i.SetSysClock) refers to system_stm32f10x.o(i.SetSysClockTo72) for SetSysClockTo72
    system_stm32f10x.o(i.SystemCoreClockUpdate) refers to system_stm32f10x.o(.data) for SystemCoreClock
    system_stm32f10x.o(i.SystemInit) refers to system_stm32f10x.o(i.SetSysClock) for SetSysClock
    stm32f10x_gpio.o(i.GPIO_AFIODeInit) refers to stm32f10x_rcc.o(i.RCC_APB2PeriphResetCmd) for RCC_APB2PeriphResetCmd
    stm32f10x_gpio.o(i.GPIO_DeInit) refers to stm32f10x_rcc.o(i.RCC_APB2PeriphResetCmd) for RCC_APB2PeriphResetCmd
    stm32f10x_rcc.o(i.RCC_GetClocksFreq) refers to stm32f10x_rcc.o(.data) for APBAHBPrescTable
    stm32f10x_rcc.o(i.RCC_WaitForHSEStartUp) refers to stm32f10x_rcc.o(i.RCC_GetFlagStatus) for RCC_GetFlagStatus
    stm32f10x_tim.o(i.TIM_DeInit) refers to stm32f10x_rcc.o(i.RCC_APB2PeriphResetCmd) for RCC_APB2PeriphResetCmd
    stm32f10x_tim.o(i.TIM_DeInit) refers to stm32f10x_rcc.o(i.RCC_APB1PeriphResetCmd) for RCC_APB1PeriphResetCmd
    stm32f10x_tim.o(i.TIM_ETRClockMode1Config) refers to stm32f10x_tim.o(i.TIM_ETRConfig) for TIM_ETRConfig
    stm32f10x_tim.o(i.TIM_ETRClockMode2Config) refers to stm32f10x_tim.o(i.TIM_ETRConfig) for TIM_ETRConfig
    stm32f10x_tim.o(i.TIM_ICInit) refers to stm32f10x_tim.o(i.TI1_Config) for TI1_Config
    stm32f10x_tim.o(i.TIM_ICInit) refers to stm32f10x_tim.o(i.TIM_SetIC1Prescaler) for TIM_SetIC1Prescaler
    stm32f10x_tim.o(i.TIM_ICInit) refers to stm32f10x_tim.o(i.TI2_Config) for TI2_Config
    stm32f10x_tim.o(i.TIM_ICInit) refers to stm32f10x_tim.o(i.TIM_SetIC2Prescaler) for TIM_SetIC2Prescaler
    stm32f10x_tim.o(i.TIM_ICInit) refers to stm32f10x_tim.o(i.TI3_Config) for TI3_Config
    stm32f10x_tim.o(i.TIM_ICInit) refers to stm32f10x_tim.o(i.TIM_SetIC3Prescaler) for TIM_SetIC3Prescaler
    stm32f10x_tim.o(i.TIM_ICInit) refers to stm32f10x_tim.o(i.TI4_Config) for TI4_Config
    stm32f10x_tim.o(i.TIM_ICInit) refers to stm32f10x_tim.o(i.TIM_SetIC4Prescaler) for TIM_SetIC4Prescaler
    stm32f10x_tim.o(i.TIM_ITRxExternalClockConfig) refers to stm32f10x_tim.o(i.TIM_SelectInputTrigger) for TIM_SelectInputTrigger
    stm32f10x_tim.o(i.TIM_PWMIConfig) refers to stm32f10x_tim.o(i.TI1_Config) for TI1_Config
    stm32f10x_tim.o(i.TIM_PWMIConfig) refers to stm32f10x_tim.o(i.TIM_SetIC1Prescaler) for TIM_SetIC1Prescaler
    stm32f10x_tim.o(i.TIM_PWMIConfig) refers to stm32f10x_tim.o(i.TI2_Config) for TI2_Config
    stm32f10x_tim.o(i.TIM_PWMIConfig) refers to stm32f10x_tim.o(i.TIM_SetIC2Prescaler) for TIM_SetIC2Prescaler
    stm32f10x_tim.o(i.TIM_TIxExternalClockConfig) refers to stm32f10x_tim.o(i.TI2_Config) for TI2_Config
    stm32f10x_tim.o(i.TIM_TIxExternalClockConfig) refers to stm32f10x_tim.o(i.TI1_Config) for TI1_Config
    stm32f10x_tim.o(i.TIM_TIxExternalClockConfig) refers to stm32f10x_tim.o(i.TIM_SelectInputTrigger) for TIM_SelectInputTrigger
    stm32f10x_usart.o(i.USART_DeInit) refers to stm32f10x_rcc.o(i.RCC_APB2PeriphResetCmd) for RCC_APB2PeriphResetCmd
    stm32f10x_usart.o(i.USART_DeInit) refers to stm32f10x_rcc.o(i.RCC_APB1PeriphResetCmd) for RCC_APB1PeriphResetCmd
    stm32f10x_usart.o(i.USART_Init) refers to stm32f10x_rcc.o(i.RCC_GetClocksFreq) for RCC_GetClocksFreq
    entry.o(.ARM.Collect$$$$00000000) refers (Special) to entry10a.o(.ARM.Collect$$$$0000000D) for __rt_final_cpp
    entry.o(.ARM.Collect$$$$00000000) refers (Special) to entry11a.o(.ARM.Collect$$$$0000000F) for __rt_final_exit
    entry.o(.ARM.Collect$$$$00000000) refers (Special) to entry7b.o(.ARM.Collect$$$$00000008) for _main_clock
    entry.o(.ARM.Collect$$$$00000000) refers (Special) to entry8b.o(.ARM.Collect$$$$0000000A) for _main_cpp_init
    entry.o(.ARM.Collect$$$$00000000) refers (Special) to entry9a.o(.ARM.Collect$$$$0000000B) for _main_init
    entry.o(.ARM.Collect$$$$00000000) refers (Special) to entry5.o(.ARM.Collect$$$$00000004) for _main_scatterload
    entry.o(.ARM.Collect$$$$00000000) refers (Special) to entry2.o(.ARM.Collect$$$$00000001) for _main_stk
    rand.o(.text) refers to rand.o(.data) for .data
    printfb.o(i.__0fprintf$bare) refers to printfb.o(i._printf_core) for _printf_core
    printfb.o(i.__0fprintf$bare) refers to usart1.o(i.fputc) for fputc
    printfb.o(i.__0printf$bare) refers to printfb.o(i._printf_core) for _printf_core
    printfb.o(i.__0printf$bare) refers to usart1.o(i.fputc) for fputc
    printfb.o(i.__0printf$bare) refers to usart1.o(.data) for __stdout
    printfb.o(i.__0snprintf$bare) refers to printfb.o(i._printf_core) for _printf_core
    printfb.o(i.__0snprintf$bare) refers to printfb.o(i._snputc) for _snputc
    printfb.o(i.__0sprintf$bare) refers to printfb.o(i._printf_core) for _printf_core
    printfb.o(i.__0sprintf$bare) refers to printfb.o(i._sputc) for _sputc
    printfb.o(i.__0vfprintf$bare) refers to printfb.o(i._printf_core) for _printf_core
    printfb.o(i.__0vfprintf$bare) refers to usart1.o(i.fputc) for fputc
    printfb.o(i.__0vprintf$bare) refers to printfb.o(i._printf_core) for _printf_core
    printfb.o(i.__0vprintf$bare) refers to usart1.o(i.fputc) for fputc
    printfb.o(i.__0vprintf$bare) refers to usart1.o(.data) for __stdout
    printfb.o(i.__0vsnprintf$bare) refers to printfb.o(i._printf_core) for _printf_core
    printfb.o(i.__0vsnprintf$bare) refers to printfb.o(i._snputc) for _snputc
    printfb.o(i.__0vsprintf$bare) refers to printfb.o(i._printf_core) for _printf_core
    printfb.o(i.__0vsprintf$bare) refers to printfb.o(i._sputc) for _sputc
    printf0.o(i.__0fprintf$0) refers to printf0.o(i._printf_core) for _printf_core
    printf0.o(i.__0fprintf$0) refers to usart1.o(i.fputc) for fputc
    printf0.o(i.__0printf$0) refers to printf0.o(i._printf_core) for _printf_core
    printf0.o(i.__0printf$0) refers to usart1.o(i.fputc) for fputc
    printf0.o(i.__0printf$0) refers to usart1.o(.data) for __stdout
    printf0.o(i.__0snprintf$0) refers to printf0.o(i._printf_core) for _printf_core
    printf0.o(i.__0snprintf$0) refers to printf0.o(i._snputc) for _snputc
    printf0.o(i.__0sprintf$0) refers to printf0.o(i._printf_core) for _printf_core
    printf0.o(i.__0sprintf$0) refers to printf0.o(i._sputc) for _sputc
    printf0.o(i.__0vfprintf$0) refers to printf0.o(i._printf_core) for _printf_core
    printf0.o(i.__0vfprintf$0) refers to usart1.o(i.fputc) for fputc
    printf0.o(i.__0vprintf$0) refers to printf0.o(i._printf_core) for _printf_core
    printf0.o(i.__0vprintf$0) refers to usart1.o(i.fputc) for fputc
    printf0.o(i.__0vprintf$0) refers to usart1.o(.data) for __stdout
    printf0.o(i.__0vsnprintf$0) refers to printf0.o(i._printf_core) for _printf_core
    printf0.o(i.__0vsnprintf$0) refers to printf0.o(i._snputc) for _snputc
    printf0.o(i.__0vsprintf$0) refers to printf0.o(i._printf_core) for _printf_core
    printf0.o(i.__0vsprintf$0) refers to printf0.o(i._sputc) for _sputc
    printf1.o(i.__0fprintf$1) refers to printf1.o(i._printf_core) for _printf_core
    printf1.o(i.__0fprintf$1) refers to usart1.o(i.fputc) for fputc
    printf1.o(i.__0printf$1) refers to printf1.o(i._printf_core) for _printf_core
    printf1.o(i.__0printf$1) refers to usart1.o(i.fputc) for fputc
    printf1.o(i.__0printf$1) refers to usart1.o(.data) for __stdout
    printf1.o(i.__0snprintf$1) refers to printf1.o(i._printf_core) for _printf_core
    printf1.o(i.__0snprintf$1) refers to printf1.o(i._snputc) for _snputc
    printf1.o(i.__0sprintf$1) refers to printf1.o(i._printf_core) for _printf_core
    printf1.o(i.__0sprintf$1) refers to printf1.o(i._sputc) for _sputc
    printf1.o(i.__0vfprintf$1) refers to printf1.o(i._printf_core) for _printf_core
    printf1.o(i.__0vfprintf$1) refers to usart1.o(i.fputc) for fputc
    printf1.o(i.__0vprintf$1) refers to printf1.o(i._printf_core) for _printf_core
    printf1.o(i.__0vprintf$1) refers to usart1.o(i.fputc) for fputc
    printf1.o(i.__0vprintf$1) refers to usart1.o(.data) for __stdout
    printf1.o(i.__0vsnprintf$1) refers to printf1.o(i._printf_core) for _printf_core
    printf1.o(i.__0vsnprintf$1) refers to printf1.o(i._snputc) for _snputc
    printf1.o(i.__0vsprintf$1) refers to printf1.o(i._printf_core) for _printf_core
    printf1.o(i.__0vsprintf$1) refers to printf1.o(i._sputc) for _sputc
    printf1.o(i._printf_core) refers to uidiv.o(.text) for __aeabi_uidivmod
    printf2.o(i.__0fprintf$2) refers to printf2.o(i._printf_core) for _printf_core
    printf2.o(i.__0fprintf$2) refers to usart1.o(i.fputc) for fputc
    printf2.o(i.__0printf$2) refers to printf2.o(i._printf_core) for _printf_core
    printf2.o(i.__0printf$2) refers to usart1.o(i.fputc) for fputc
    printf2.o(i.__0printf$2) refers to usart1.o(.data) for __stdout
    printf2.o(i.__0snprintf$2) refers to printf2.o(i._printf_core) for _printf_core
    printf2.o(i.__0snprintf$2) refers to printf2.o(i._snputc) for _snputc
    printf2.o(i.__0sprintf$2) refers to printf2.o(i._printf_core) for _printf_core
    printf2.o(i.__0sprintf$2) refers to printf2.o(i._sputc) for _sputc
    printf2.o(i.__0vfprintf$2) refers to printf2.o(i._printf_core) for _printf_core
    printf2.o(i.__0vfprintf$2) refers to usart1.o(i.fputc) for fputc
    printf2.o(i.__0vprintf$2) refers to printf2.o(i._printf_core) for _printf_core
    printf2.o(i.__0vprintf$2) refers to usart1.o(i.fputc) for fputc
    printf2.o(i.__0vprintf$2) refers to usart1.o(.data) for __stdout
    printf2.o(i.__0vsnprintf$2) refers to printf2.o(i._printf_core) for _printf_core
    printf2.o(i.__0vsnprintf$2) refers to printf2.o(i._snputc) for _snputc
    printf2.o(i.__0vsprintf$2) refers to printf2.o(i._printf_core) for _printf_core
    printf2.o(i.__0vsprintf$2) refers to printf2.o(i._sputc) for _sputc
    printf3.o(i.__0fprintf$3) refers to printf3.o(i._printf_core) for _printf_core
    printf3.o(i.__0fprintf$3) refers to usart1.o(i.fputc) for fputc
    printf3.o(i.__0printf$3) refers to printf3.o(i._printf_core) for _printf_core
    printf3.o(i.__0printf$3) refers to usart1.o(i.fputc) for fputc
    printf3.o(i.__0printf$3) refers to usart1.o(.data) for __stdout
    printf3.o(i.__0snprintf$3) refers to printf3.o(i._printf_core) for _printf_core
    printf3.o(i.__0snprintf$3) refers to printf3.o(i._snputc) for _snputc
    printf3.o(i.__0sprintf$3) refers to printf3.o(i._printf_core) for _printf_core
    printf3.o(i.__0sprintf$3) refers to printf3.o(i._sputc) for _sputc
    printf3.o(i.__0vfprintf$3) refers to printf3.o(i._printf_core) for _printf_core
    printf3.o(i.__0vfprintf$3) refers to usart1.o(i.fputc) for fputc
    printf3.o(i.__0vprintf$3) refers to printf3.o(i._printf_core) for _printf_core
    printf3.o(i.__0vprintf$3) refers to usart1.o(i.fputc) for fputc
    printf3.o(i.__0vprintf$3) refers to usart1.o(.data) for __stdout
    printf3.o(i.__0vsnprintf$3) refers to printf3.o(i._printf_core) for _printf_core
    printf3.o(i.__0vsnprintf$3) refers to printf3.o(i._snputc) for _snputc
    printf3.o(i.__0vsprintf$3) refers to printf3.o(i._printf_core) for _printf_core
    printf3.o(i.__0vsprintf$3) refers to printf3.o(i._sputc) for _sputc
    printf3.o(i._printf_core) refers to uidiv.o(.text) for __aeabi_uidivmod
    printf4.o(i.__0fprintf$4) refers to printf4.o(i._printf_core) for _printf_core
    printf4.o(i.__0fprintf$4) refers to usart1.o(i.fputc) for fputc
    printf4.o(i.__0printf$4) refers to printf4.o(i._printf_core) for _printf_core
    printf4.o(i.__0printf$4) refers to usart1.o(i.fputc) for fputc
    printf4.o(i.__0printf$4) refers to usart1.o(.data) for __stdout
    printf4.o(i.__0snprintf$4) refers to printf4.o(i._printf_core) for _printf_core
    printf4.o(i.__0snprintf$4) refers to printf4.o(i._snputc) for _snputc
    printf4.o(i.__0sprintf$4) refers to printf4.o(i._printf_core) for _printf_core
    printf4.o(i.__0sprintf$4) refers to printf4.o(i._sputc) for _sputc
    printf4.o(i.__0vfprintf$4) refers to printf4.o(i._printf_core) for _printf_core
    printf4.o(i.__0vfprintf$4) refers to usart1.o(i.fputc) for fputc
    printf4.o(i.__0vprintf$4) refers to printf4.o(i._printf_core) for _printf_core
    printf4.o(i.__0vprintf$4) refers to usart1.o(i.fputc) for fputc
    printf4.o(i.__0vprintf$4) refers to usart1.o(.data) for __stdout
    printf4.o(i.__0vsnprintf$4) refers to printf4.o(i._printf_core) for _printf_core
    printf4.o(i.__0vsnprintf$4) refers to printf4.o(i._snputc) for _snputc
    printf4.o(i.__0vsprintf$4) refers to printf4.o(i._printf_core) for _printf_core
    printf4.o(i.__0vsprintf$4) refers to printf4.o(i._sputc) for _sputc
    printf4.o(i._printf_core) refers to uldiv.o(.text) for __aeabi_uldivmod
    printf5.o(i.__0fprintf$5) refers to printf5.o(i._printf_core) for _printf_core
    printf5.o(i.__0fprintf$5) refers to usart1.o(i.fputc) for fputc
    printf5.o(i.__0printf$5) refers to printf5.o(i._printf_core) for _printf_core
    printf5.o(i.__0printf$5) refers to usart1.o(i.fputc) for fputc
    printf5.o(i.__0printf$5) refers to usart1.o(.data) for __stdout
    printf5.o(i.__0snprintf$5) refers to printf5.o(i._printf_core) for _printf_core
    printf5.o(i.__0snprintf$5) refers to printf5.o(i._snputc) for _snputc
    printf5.o(i.__0sprintf$5) refers to printf5.o(i._printf_core) for _printf_core
    printf5.o(i.__0sprintf$5) refers to printf5.o(i._sputc) for _sputc
    printf5.o(i.__0vfprintf$5) refers to printf5.o(i._printf_core) for _printf_core
    printf5.o(i.__0vfprintf$5) refers to usart1.o(i.fputc) for fputc
    printf5.o(i.__0vprintf$5) refers to printf5.o(i._printf_core) for _printf_core
    printf5.o(i.__0vprintf$5) refers to usart1.o(i.fputc) for fputc
    printf5.o(i.__0vprintf$5) refers to usart1.o(.data) for __stdout
    printf5.o(i.__0vsnprintf$5) refers to printf5.o(i._printf_core) for _printf_core
    printf5.o(i.__0vsnprintf$5) refers to printf5.o(i._snputc) for _snputc
    printf5.o(i.__0vsprintf$5) refers to printf5.o(i._printf_core) for _printf_core
    printf5.o(i.__0vsprintf$5) refers to printf5.o(i._sputc) for _sputc
    printf5.o(i._printf_core) refers to uldiv.o(.text) for __aeabi_uldivmod
    printf6.o(i.__0fprintf$6) refers to printf6.o(i._printf_core) for _printf_core
    printf6.o(i.__0fprintf$6) refers to usart1.o(i.fputc) for fputc
    printf6.o(i.__0printf$6) refers to printf6.o(i._printf_core) for _printf_core
    printf6.o(i.__0printf$6) refers to usart1.o(i.fputc) for fputc
    printf6.o(i.__0printf$6) refers to usart1.o(.data) for __stdout
    printf6.o(i.__0snprintf$6) refers to printf6.o(i._printf_core) for _printf_core
    printf6.o(i.__0snprintf$6) refers to printf6.o(i._snputc) for _snputc
    printf6.o(i.__0sprintf$6) refers to printf6.o(i._printf_core) for _printf_core
    printf6.o(i.__0sprintf$6) refers to printf6.o(i._sputc) for _sputc
    printf6.o(i.__0vfprintf$6) refers to printf6.o(i._printf_core) for _printf_core
    printf6.o(i.__0vfprintf$6) refers to usart1.o(i.fputc) for fputc
    printf6.o(i.__0vprintf$6) refers to printf6.o(i._printf_core) for _printf_core
    printf6.o(i.__0vprintf$6) refers to usart1.o(i.fputc) for fputc
    printf6.o(i.__0vprintf$6) refers to usart1.o(.data) for __stdout
    printf6.o(i.__0vsnprintf$6) refers to printf6.o(i._printf_core) for _printf_core
    printf6.o(i.__0vsnprintf$6) refers to printf6.o(i._snputc) for _snputc
    printf6.o(i.__0vsprintf$6) refers to printf6.o(i._printf_core) for _printf_core
    printf6.o(i.__0vsprintf$6) refers to printf6.o(i._sputc) for _sputc
    printf6.o(i._printf_core) refers to printf6.o(i._printf_pre_padding) for _printf_pre_padding
    printf6.o(i._printf_core) refers to uidiv.o(.text) for __aeabi_uidivmod
    printf6.o(i._printf_core) refers to printf6.o(i._printf_post_padding) for _printf_post_padding
    printf7.o(i.__0fprintf$7) refers to printf7.o(i._printf_core) for _printf_core
    printf7.o(i.__0fprintf$7) refers to usart1.o(i.fputc) for fputc
    printf7.o(i.__0printf$7) refers to printf7.o(i._printf_core) for _printf_core
    printf7.o(i.__0printf$7) refers to usart1.o(i.fputc) for fputc
    printf7.o(i.__0printf$7) refers to usart1.o(.data) for __stdout
    printf7.o(i.__0snprintf$7) refers to printf7.o(i._printf_core) for _printf_core
    printf7.o(i.__0snprintf$7) refers to printf7.o(i._snputc) for _snputc
    printf7.o(i.__0sprintf$7) refers to printf7.o(i._printf_core) for _printf_core
    printf7.o(i.__0sprintf$7) refers to printf7.o(i._sputc) for _sputc
    printf7.o(i.__0vfprintf$7) refers to printf7.o(i._printf_core) for _printf_core
    printf7.o(i.__0vfprintf$7) refers to usart1.o(i.fputc) for fputc
    printf7.o(i.__0vprintf$7) refers to printf7.o(i._printf_core) for _printf_core
    printf7.o(i.__0vprintf$7) refers to usart1.o(i.fputc) for fputc
    printf7.o(i.__0vprintf$7) refers to usart1.o(.data) for __stdout
    printf7.o(i.__0vsnprintf$7) refers to printf7.o(i._printf_core) for _printf_core
    printf7.o(i.__0vsnprintf$7) refers to printf7.o(i._snputc) for _snputc
    printf7.o(i.__0vsprintf$7) refers to printf7.o(i._printf_core) for _printf_core
    printf7.o(i.__0vsprintf$7) refers to printf7.o(i._sputc) for _sputc
    printf7.o(i._printf_core) refers to printf7.o(i._printf_pre_padding) for _printf_pre_padding
    printf7.o(i._printf_core) refers to uldiv.o(.text) for __aeabi_uldivmod
    printf7.o(i._printf_core) refers to printf7.o(i._printf_post_padding) for _printf_post_padding
    printf8.o(i.__0fprintf$8) refers to printf8.o(i._printf_core) for _printf_core
    printf8.o(i.__0fprintf$8) refers to usart1.o(i.fputc) for fputc
    printf8.o(i.__0printf$8) refers to printf8.o(i._printf_core) for _printf_core
    printf8.o(i.__0printf$8) refers to usart1.o(i.fputc) for fputc
    printf8.o(i.__0printf$8) refers to usart1.o(.data) for __stdout
    printf8.o(i.__0snprintf$8) refers to printf8.o(i._printf_core) for _printf_core
    printf8.o(i.__0snprintf$8) refers to printf8.o(i._snputc) for _snputc
    printf8.o(i.__0sprintf$8) refers to printf8.o(i._printf_core) for _printf_core
    printf8.o(i.__0sprintf$8) refers to printf8.o(i._sputc) for _sputc
    printf8.o(i.__0vfprintf$8) refers to printf8.o(i._printf_core) for _printf_core
    printf8.o(i.__0vfprintf$8) refers to usart1.o(i.fputc) for fputc
    printf8.o(i.__0vprintf$8) refers to printf8.o(i._printf_core) for _printf_core
    printf8.o(i.__0vprintf$8) refers to usart1.o(i.fputc) for fputc
    printf8.o(i.__0vprintf$8) refers to usart1.o(.data) for __stdout
    printf8.o(i.__0vsnprintf$8) refers to printf8.o(i._printf_core) for _printf_core
    printf8.o(i.__0vsnprintf$8) refers to printf8.o(i._snputc) for _snputc
    printf8.o(i.__0vsprintf$8) refers to printf8.o(i._printf_core) for _printf_core
    printf8.o(i.__0vsprintf$8) refers to printf8.o(i._sputc) for _sputc
    printf8.o(i._printf_core) refers to printf8.o(i._printf_pre_padding) for _printf_pre_padding
    printf8.o(i._printf_core) refers to uldiv.o(.text) for __aeabi_uldivmod
    printf8.o(i._printf_core) refers to printf8.o(i._printf_post_padding) for _printf_post_padding
    printfa.o(i.__0fprintf) refers (Special) to iusefp.o(.text) for __I$use$fp
    printfa.o(i.__0fprintf) refers to printfa.o(i._printf_core) for _printf_core
    printfa.o(i.__0fprintf) refers to usart1.o(i.fputc) for fputc
    printfa.o(i.__0printf) refers (Special) to iusefp.o(.text) for __I$use$fp
    printfa.o(i.__0printf) refers to printfa.o(i._printf_core) for _printf_core
    printfa.o(i.__0printf) refers to usart1.o(i.fputc) for fputc
    printfa.o(i.__0printf) refers to usart1.o(.data) for __stdout
    printfa.o(i.__0snprintf) refers (Special) to iusefp.o(.text) for __I$use$fp
    printfa.o(i.__0snprintf) refers to printfa.o(i._printf_core) for _printf_core
    printfa.o(i.__0snprintf) refers to printfa.o(i._snputc) for _snputc
    printfa.o(i.__0sprintf) refers (Special) to iusefp.o(.text) for __I$use$fp
    printfa.o(i.__0sprintf) refers to printfa.o(i._printf_core) for _printf_core
    printfa.o(i.__0sprintf) refers to printfa.o(i._sputc) for _sputc
    printfa.o(i.__0vfprintf) refers (Special) to iusefp.o(.text) for __I$use$fp
    printfa.o(i.__0vfprintf) refers to printfa.o(i._printf_core) for _printf_core
    printfa.o(i.__0vfprintf) refers to usart1.o(i.fputc) for fputc
    printfa.o(i.__0vprintf) refers (Special) to iusefp.o(.text) for __I$use$fp
    printfa.o(i.__0vprintf) refers to printfa.o(i._printf_core) for _printf_core
    printfa.o(i.__0vprintf) refers to usart1.o(i.fputc) for fputc
    printfa.o(i.__0vprintf) refers to usart1.o(.data) for __stdout
    printfa.o(i.__0vsnprintf) refers (Special) to iusefp.o(.text) for __I$use$fp
    printfa.o(i.__0vsnprintf) refers to printfa.o(i._printf_core) for _printf_core
    printfa.o(i.__0vsnprintf) refers to printfa.o(i._snputc) for _snputc
    printfa.o(i.__0vsprintf) refers (Special) to iusefp.o(.text) for __I$use$fp
    printfa.o(i.__0vsprintf) refers to printfa.o(i._printf_core) for _printf_core
    printfa.o(i.__0vsprintf) refers to printfa.o(i._sputc) for _sputc
    printfa.o(i._fp_digits) refers (Special) to iusefp.o(.text) for __I$use$fp
    printfa.o(i._fp_digits) refers to dmul.o(.text) for __aeabi_dmul
    printfa.o(i._fp_digits) refers to ddiv.o(.text) for __aeabi_ddiv
    printfa.o(i._fp_digits) refers to cdrcmple.o(.text) for __aeabi_cdrcmple
    printfa.o(i._fp_digits) refers to dadd.o(.text) for __aeabi_dadd
    printfa.o(i._fp_digits) refers to dfixul.o(.text) for __aeabi_d2ulz
    printfa.o(i._fp_digits) refers to uldiv.o(.text) for __aeabi_uldivmod
    printfa.o(i._printf_core) refers (Special) to iusefp.o(.text) for __I$use$fp
    printfa.o(i._printf_core) refers to printfa.o(i._printf_pre_padding) for _printf_pre_padding
    printfa.o(i._printf_core) refers to uldiv.o(.text) for __aeabi_uldivmod
    printfa.o(i._printf_core) refers to printfa.o(i._printf_post_padding) for _printf_post_padding
    printfa.o(i._printf_core) refers to printfa.o(i._fp_digits) for _fp_digits
    printfa.o(i._printf_core) refers to uidiv.o(.text) for __aeabi_uidivmod
    printfa.o(i._printf_post_padding) refers (Special) to iusefp.o(.text) for __I$use$fp
    printfa.o(i._printf_pre_padding) refers (Special) to iusefp.o(.text) for __I$use$fp
    printfa.o(i._snputc) refers (Special) to iusefp.o(.text) for __I$use$fp
    printfa.o(i._sputc) refers (Special) to iusefp.o(.text) for __I$use$fp
    entry2.o(.ARM.Collect$$$$00000001) refers to entry2.o(.ARM.Collect$$$$00002712) for __lit__00000000
    entry2.o(.ARM.Collect$$$$00002712) refers to startup_stm32f10x_hd.o(STACK) for __initial_sp
    entry2.o(__vectab_stack_and_reset_area) refers to startup_stm32f10x_hd.o(STACK) for __initial_sp
    entry2.o(__vectab_stack_and_reset_area) refers to entry.o(.ARM.Collect$$$$00000000) for __main
    entry5.o(.ARM.Collect$$$$00000004) refers to init.o(.text) for __scatterload
    entry9a.o(.ARM.Collect$$$$0000000B) refers to main.o(i.main) for main
    entry9b.o(.ARM.Collect$$$$0000000C) refers to main.o(i.main) for main
    uldiv.o(.text) refers to llushr.o(.text) for __aeabi_llsr
    uldiv.o(.text) refers to llshl.o(.text) for __aeabi_llsl
    dadd.o(.text) refers to llshl.o(.text) for __aeabi_llsl
    dadd.o(.text) refers to llsshr.o(.text) for __aeabi_lasr
    dadd.o(.text) refers to depilogue.o(.text) for _double_epilogue
    dmul.o(.text) refers to depilogue.o(.text) for _double_epilogue
    ddiv.o(.text) refers to depilogue.o(.text) for _double_round
    dfixul.o(.text) refers to llushr.o(.text) for __aeabi_llsr
    dfixul.o(.text) refers to llshl.o(.text) for __aeabi_llsl
    init.o(.text) refers to entry5.o(.ARM.Collect$$$$00000004) for __main_after_scatterload
    depilogue.o(.text) refers to llshl.o(.text) for __aeabi_llsl
    depilogue.o(.text) refers to llushr.o(.text) for __aeabi_llsr


==============================================================================

Removing Unused input sections from the image.

    Removing main.o(.rev16_text), (4 bytes).
    Removing main.o(.revsh_text), (4 bytes).
    Removing main.o(.rrx_text), (6 bytes).
    Removing led.o(.rev16_text), (4 bytes).
    Removing led.o(.revsh_text), (4 bytes).
    Removing led.o(.rrx_text), (6 bytes).
    Removing nvic.o(.rev16_text), (4 bytes).
    Removing nvic.o(.revsh_text), (4 bytes).
    Removing nvic.o(.rrx_text), (6 bytes).
    Removing nvic.o(.data), (4 bytes).
    Removing timer.o(.rev16_text), (4 bytes).
    Removing timer.o(.revsh_text), (4 bytes).
    Removing timer.o(.rrx_text), (6 bytes).
    Removing timer.o(i.TIM2_Init), (80 bytes).
    Removing timer.o(i.TIM2_Set), (40 bytes).
    Removing usart1.o(.rev16_text), (4 bytes).
    Removing usart1.o(.revsh_text), (4 bytes).
    Removing usart1.o(.rrx_text), (6 bytes).
    Removing usart1.o(i.USART1_SEND), (44 bytes).
    Removing usart1.o(i._sys_exit), (6 bytes).
    Removing usart1.o(.bss), (400 bytes).
    Removing usart2.o(.rev16_text), (4 bytes).
    Removing usart2.o(.revsh_text), (4 bytes).
    Removing usart2.o(.rrx_text), (6 bytes).
    Removing key.o(.rev16_text), (4 bytes).
    Removing key.o(.revsh_text), (4 bytes).
    Removing key.o(.rrx_text), (6 bytes).
    Removing delay.o(.rev16_text), (4 bytes).
    Removing delay.o(.revsh_text), (4 bytes).
    Removing delay.o(.rrx_text), (6 bytes).
    Removing delay.o(i.delay_us), (60 bytes).
    Removing sys1.o(.rev16_text), (4 bytes).
    Removing sys1.o(.revsh_text), (4 bytes).
    Removing sys1.o(.rrx_text), (6 bytes).
    Removing sys1.o(.emb_text), (12 bytes).
    Removing sys1.o(i.Ex_NVIC_Config), (160 bytes).
    Removing sys1.o(i.JTAG_Set), (48 bytes).
    Removing sys1.o(i.MYRCC_DeInit), (104 bytes).
    Removing sys1.o(i.MY_NVIC_Init), (120 bytes).
    Removing sys1.o(i.MY_NVIC_PriorityGroupConfig), (40 bytes).
    Removing sys1.o(i.MY_NVIC_SetVectorTable), (20 bytes).
    Removing sys1.o(i.Stm32_Clock_Init), (144 bytes).
    Removing sys1.o(i.Sys_Soft_Reset), (16 bytes).
    Removing sys1.o(i.Sys_Standby), (76 bytes).
    Removing auth.o(.rev16_text), (4 bytes).
    Removing auth.o(.revsh_text), (4 bytes).
    Removing auth.o(.rrx_text), (6 bytes).
    Removing chap.o(.rev16_text), (4 bytes).
    Removing chap.o(.revsh_text), (4 bytes).
    Removing chap.o(.rrx_text), (6 bytes).
    Removing chpms.o(.rev16_text), (4 bytes).
    Removing chpms.o(.revsh_text), (4 bytes).
    Removing chpms.o(.rrx_text), (6 bytes).
    Removing fsm.o(.rev16_text), (4 bytes).
    Removing fsm.o(.revsh_text), (4 bytes).
    Removing fsm.o(.rrx_text), (6 bytes).
    Removing ipcp.o(.rev16_text), (4 bytes).
    Removing ipcp.o(.revsh_text), (4 bytes).
    Removing ipcp.o(.rrx_text), (6 bytes).
    Removing lcp.o(.rev16_text), (4 bytes).
    Removing lcp.o(.revsh_text), (4 bytes).
    Removing lcp.o(.rrx_text), (6 bytes).
    Removing magic.o(.rev16_text), (4 bytes).
    Removing magic.o(.revsh_text), (4 bytes).
    Removing magic.o(.rrx_text), (6 bytes).
    Removing md5.o(.rev16_text), (4 bytes).
    Removing md5.o(.revsh_text), (4 bytes).
    Removing md5.o(.rrx_text), (6 bytes).
    Removing pap.o(.rev16_text), (4 bytes).
    Removing pap.o(.revsh_text), (4 bytes).
    Removing pap.o(.rrx_text), (6 bytes).
    Removing ppp.o(.rev16_text), (4 bytes).
    Removing ppp.o(.revsh_text), (4 bytes).
    Removing ppp.o(.rrx_text), (6 bytes).
    Removing ppp.o(i.pppClose), (40 bytes).
    Removing ppp.o(i.pppHup), (18 bytes).
    Removing ppp.o(i.pppSigHUP), (12 bytes).
    Removing ppp.o(i.pppStop), (32 bytes).
    Removing ppp.o(i.ppp_set_netif_linkcallback), (36 bytes).
    Removing ppp.o(i.ppp_set_netif_statuscallback), (36 bytes).
    Removing ppp_oe.o(.rev16_text), (4 bytes).
    Removing ppp_oe.o(.revsh_text), (4 bytes).
    Removing ppp_oe.o(.rrx_text), (6 bytes).
    Removing randm.o(.rev16_text), (4 bytes).
    Removing randm.o(.revsh_text), (4 bytes).
    Removing randm.o(.rrx_text), (6 bytes).
    Removing vj.o(.rev16_text), (4 bytes).
    Removing vj.o(.revsh_text), (4 bytes).
    Removing vj.o(.rrx_text), (6 bytes).
    Removing def.o(.rev16_text), (4 bytes).
    Removing def.o(.revsh_text), (4 bytes).
    Removing def.o(.rrx_text), (6 bytes).
    Removing dhcp.o(.rev16_text), (4 bytes).
    Removing dhcp.o(.revsh_text), (4 bytes).
    Removing dhcp.o(.rrx_text), (6 bytes).
    Removing dns.o(.rev16_text), (4 bytes).
    Removing dns.o(.revsh_text), (4 bytes).
    Removing dns.o(.rrx_text), (6 bytes).
    Removing dns.o(i.dns_enqueue), (236 bytes).
    Removing dns.o(i.dns_gethostbyname), (92 bytes).
    Removing dns.o(i.dns_getserver), (28 bytes).
    Removing dns.o(i.dns_lookup), (104 bytes).
    Removing init.o(.rev16_text), (4 bytes).
    Removing init.o(.revsh_text), (4 bytes).
    Removing init.o(.rrx_text), (6 bytes).
    Removing mem.o(.rev16_text), (4 bytes).
    Removing mem.o(.revsh_text), (4 bytes).
    Removing mem.o(.rrx_text), (6 bytes).
    Removing mem.o(i.mem_calloc), (34 bytes).
    Removing memp.o(.rev16_text), (4 bytes).
    Removing memp.o(.revsh_text), (4 bytes).
    Removing memp.o(.rrx_text), (6 bytes).
    Removing netif.o(.rev16_text), (4 bytes).
    Removing netif.o(.revsh_text), (4 bytes).
    Removing netif.o(.rrx_text), (6 bytes).
    Removing netif.o(i.netif_find), (76 bytes).
    Removing netif.o(i.netif_set_link_callback), (6 bytes).
    Removing netif.o(i.netif_set_link_down), (42 bytes).
    Removing netif.o(i.netif_set_link_up), (42 bytes).
    Removing netif.o(i.netif_set_status_callback), (6 bytes).
    Removing pbuf.o(.rev16_text), (4 bytes).
    Removing pbuf.o(.revsh_text), (4 bytes).
    Removing pbuf.o(.rrx_text), (6 bytes).
    Removing pbuf.o(i.pbuf_coalesce), (180 bytes).
    Removing pbuf.o(i.pbuf_copy), (584 bytes).
    Removing pbuf.o(i.pbuf_dechain), (272 bytes).
    Removing pbuf.o(i.pbuf_get_at), (46 bytes).
    Removing pbuf.o(i.pbuf_memcmp), (96 bytes).
    Removing pbuf.o(i.pbuf_memfind), (76 bytes).
    Removing pbuf.o(i.pbuf_strstr), (60 bytes).
    Removing pbuf.o(i.pbuf_take), (396 bytes).
    Removing raw.o(.rev16_text), (4 bytes).
    Removing raw.o(.revsh_text), (4 bytes).
    Removing raw.o(.rrx_text), (6 bytes).
    Removing raw.o(i.raw_bind), (16 bytes).
    Removing raw.o(i.raw_connect), (16 bytes).
    Removing raw.o(i.raw_new), (56 bytes).
    Removing raw.o(i.raw_recv), (6 bytes).
    Removing raw.o(i.raw_remove), (64 bytes).
    Removing raw.o(i.raw_send), (18 bytes).
    Removing raw.o(i.raw_sendto), (312 bytes).
    Removing stats.o(.rev16_text), (4 bytes).
    Removing stats.o(.revsh_text), (4 bytes).
    Removing stats.o(.rrx_text), (6 bytes).
    Removing sys.o(.rev16_text), (4 bytes).
    Removing sys.o(.revsh_text), (4 bytes).
    Removing sys.o(.rrx_text), (6 bytes).
    Removing tcp.o(.rev16_text), (4 bytes).
    Removing tcp.o(.revsh_text), (4 bytes).
    Removing tcp.o(.rrx_text), (6 bytes).
    Removing tcp.o(i.tcp_accept), (4 bytes).
    Removing tcp.o(i.tcp_accept_null), (8 bytes).
    Removing tcp.o(i.tcp_arg), (4 bytes).
    Removing tcp.o(i.tcp_debug_state_str), (16 bytes).
    Removing tcp.o(i.tcp_err), (160 bytes).
    Removing tcp.o(i.tcp_listen_with_backlog), (364 bytes).
    Removing tcp.o(i.tcp_poll), (160 bytes).
    Removing tcp.o(i.tcp_recv), (160 bytes).
    Removing tcp.o(i.tcp_sent), (160 bytes).
    Removing tcp.o(i.tcp_setprio), (4 bytes).
    Removing tcp.o(i.tcp_shutdown), (98 bytes).
    Removing tcp_in.o(.rev16_text), (4 bytes).
    Removing tcp_in.o(.revsh_text), (4 bytes).
    Removing tcp_in.o(.rrx_text), (6 bytes).
    Removing tcp_out.o(.rev16_text), (4 bytes).
    Removing tcp_out.o(.revsh_text), (4 bytes).
    Removing tcp_out.o(.rrx_text), (6 bytes).
    Removing timers.o(.rev16_text), (4 bytes).
    Removing timers.o(.revsh_text), (4 bytes).
    Removing timers.o(.rrx_text), (6 bytes).
    Removing timers.o(i.sys_check_timeouts), (100 bytes).
    Removing timers.o(i.sys_restart_timeouts), (16 bytes).
    Removing udp.o(.rev16_text), (4 bytes).
    Removing udp.o(.revsh_text), (4 bytes).
    Removing udp.o(.rrx_text), (6 bytes).
    Removing udp.o(i.udp_disconnect), (16 bytes).
    Removing udp.o(i.udp_remove), (64 bytes).
    Removing udp.o(i.udp_send), (20 bytes).
    Removing autoip.o(.rev16_text), (4 bytes).
    Removing autoip.o(.revsh_text), (4 bytes).
    Removing autoip.o(.rrx_text), (6 bytes).
    Removing icmp.o(.rev16_text), (4 bytes).
    Removing icmp.o(.revsh_text), (4 bytes).
    Removing icmp.o(.rrx_text), (6 bytes).
    Removing igmp.o(.rev16_text), (4 bytes).
    Removing igmp.o(.revsh_text), (4 bytes).
    Removing igmp.o(.rrx_text), (6 bytes).
    Removing inet.o(.rev16_text), (4 bytes).
    Removing inet.o(.revsh_text), (4 bytes).
    Removing inet.o(.rrx_text), (6 bytes).
    Removing inet_chksum.o(.rev16_text), (4 bytes).
    Removing inet_chksum.o(.revsh_text), (4 bytes).
    Removing inet_chksum.o(.rrx_text), (6 bytes).
    Removing inet_chksum.o(i.inet_chksum_pbuf), (86 bytes).
    Removing inet_chksum.o(i.inet_chksum_pseudo_partial), (324 bytes).
    Removing ip.o(.rev16_text), (4 bytes).
    Removing ip.o(.revsh_text), (4 bytes).
    Removing ip.o(.rrx_text), (6 bytes).
    Removing ip_addr.o(.rev16_text), (4 bytes).
    Removing ip_addr.o(.revsh_text), (4 bytes).
    Removing ip_addr.o(.rrx_text), (6 bytes).
    Removing ip_addr.o(i.ip4_addr_netmask_valid), (56 bytes).
    Removing ip_addr.o(i.ipaddr_ntoa), (20 bytes).
    Removing ip_addr.o(i.ipaddr_ntoa_r), (168 bytes).
    Removing ip_addr.o(.bss), (16 bytes).
    Removing ip_frag.o(.rev16_text), (4 bytes).
    Removing ip_frag.o(.revsh_text), (4 bytes).
    Removing ip_frag.o(.rrx_text), (6 bytes).
    Removing sio.o(.rev16_text), (4 bytes).
    Removing sio.o(.revsh_text), (4 bytes).
    Removing sio.o(.rrx_text), (6 bytes).
    Removing sio.o(i.sio_open), (6 bytes).
    Removing sio.o(i.sio_read), (6 bytes).
    Removing sio.o(i.sio_read_abort), (2 bytes).
    Removing sio.o(i.sio_recv), (6 bytes).
    Removing sio.o(i.sio_send), (2 bytes).
    Removing sio.o(i.sio_tryread), (6 bytes).
    Removing sys_arch.o(.rev16_text), (4 bytes).
    Removing sys_arch.o(.revsh_text), (4 bytes).
    Removing sys_arch.o(.rrx_text), (6 bytes).
    Removing startup_stm32f10x_hd.o(HEAP), (512 bytes).
    Removing system_stm32f10x.o(.rev16_text), (4 bytes).
    Removing system_stm32f10x.o(.revsh_text), (4 bytes).
    Removing system_stm32f10x.o(.rrx_text), (6 bytes).
    Removing system_stm32f10x.o(i.SystemCoreClockUpdate), (164 bytes).
    Removing system_stm32f10x.o(.data), (20 bytes).
    Removing misc.o(.rev16_text), (4 bytes).
    Removing misc.o(.revsh_text), (4 bytes).
    Removing misc.o(.rrx_text), (6 bytes).
    Removing misc.o(i.NVIC_SetVectorTable), (20 bytes).
    Removing misc.o(i.NVIC_SystemLPConfig), (32 bytes).
    Removing misc.o(i.SysTick_CLKSourceConfig), (40 bytes).
    Removing stm32f10x_exti.o(.rev16_text), (4 bytes).
    Removing stm32f10x_exti.o(.revsh_text), (4 bytes).
    Removing stm32f10x_exti.o(.rrx_text), (6 bytes).
    Removing stm32f10x_exti.o(i.EXTI_ClearFlag), (12 bytes).
    Removing stm32f10x_exti.o(i.EXTI_DeInit), (36 bytes).
    Removing stm32f10x_exti.o(i.EXTI_GetFlagStatus), (24 bytes).
    Removing stm32f10x_exti.o(i.EXTI_StructInit), (16 bytes).
    Removing stm32f10x_gpio.o(.rev16_text), (4 bytes).
    Removing stm32f10x_gpio.o(.revsh_text), (4 bytes).
    Removing stm32f10x_gpio.o(.rrx_text), (6 bytes).
    Removing stm32f10x_gpio.o(i.GPIO_AFIODeInit), (20 bytes).
    Removing stm32f10x_gpio.o(i.GPIO_DeInit), (200 bytes).
    Removing stm32f10x_gpio.o(i.GPIO_ETH_MediaInterfaceConfig), (12 bytes).
    Removing stm32f10x_gpio.o(i.GPIO_EXTILineConfig), (64 bytes).
    Removing stm32f10x_gpio.o(i.GPIO_EventOutputCmd), (12 bytes).
    Removing stm32f10x_gpio.o(i.GPIO_EventOutputConfig), (32 bytes).
    Removing stm32f10x_gpio.o(i.GPIO_PinLockConfig), (18 bytes).
    Removing stm32f10x_gpio.o(i.GPIO_PinRemapConfig), (144 bytes).
    Removing stm32f10x_gpio.o(i.GPIO_ReadInputData), (8 bytes).
    Removing stm32f10x_gpio.o(i.GPIO_ReadInputDataBit), (18 bytes).
    Removing stm32f10x_gpio.o(i.GPIO_ReadOutputData), (8 bytes).
    Removing stm32f10x_gpio.o(i.GPIO_ReadOutputDataBit), (18 bytes).
    Removing stm32f10x_gpio.o(i.GPIO_ResetBits), (4 bytes).
    Removing stm32f10x_gpio.o(i.GPIO_StructInit), (16 bytes).
    Removing stm32f10x_gpio.o(i.GPIO_Write), (4 bytes).
    Removing stm32f10x_gpio.o(i.GPIO_WriteBit), (10 bytes).
    Removing stm32f10x_rcc.o(.rev16_text), (4 bytes).
    Removing stm32f10x_rcc.o(.revsh_text), (4 bytes).
    Removing stm32f10x_rcc.o(.rrx_text), (6 bytes).
    Removing stm32f10x_rcc.o(i.RCC_ADCCLKConfig), (24 bytes).
    Removing stm32f10x_rcc.o(i.RCC_AHBPeriphClockCmd), (32 bytes).
    Removing stm32f10x_rcc.o(i.RCC_AdjustHSICalibrationValue), (24 bytes).
    Removing stm32f10x_rcc.o(i.RCC_BackupResetCmd), (12 bytes).
    Removing stm32f10x_rcc.o(i.RCC_ClearFlag), (20 bytes).
    Removing stm32f10x_rcc.o(i.RCC_ClearITPendingBit), (12 bytes).
    Removing stm32f10x_rcc.o(i.RCC_ClockSecuritySystemCmd), (12 bytes).
    Removing stm32f10x_rcc.o(i.RCC_DeInit), (76 bytes).
    Removing stm32f10x_rcc.o(i.RCC_GetFlagStatus), (60 bytes).
    Removing stm32f10x_rcc.o(i.RCC_GetITStatus), (24 bytes).
    Removing stm32f10x_rcc.o(i.RCC_GetSYSCLKSource), (16 bytes).
    Removing stm32f10x_rcc.o(i.RCC_HCLKConfig), (24 bytes).
    Removing stm32f10x_rcc.o(i.RCC_HSEConfig), (76 bytes).
    Removing stm32f10x_rcc.o(i.RCC_HSICmd), (12 bytes).
    Removing stm32f10x_rcc.o(i.RCC_ITConfig), (32 bytes).
    Removing stm32f10x_rcc.o(i.RCC_LSEConfig), (52 bytes).
    Removing stm32f10x_rcc.o(i.RCC_LSICmd), (12 bytes).
    Removing stm32f10x_rcc.o(i.RCC_MCOConfig), (12 bytes).
    Removing stm32f10x_rcc.o(i.RCC_PCLK1Config), (24 bytes).
    Removing stm32f10x_rcc.o(i.RCC_PCLK2Config), (24 bytes).
    Removing stm32f10x_rcc.o(i.RCC_PLLCmd), (12 bytes).
    Removing stm32f10x_rcc.o(i.RCC_PLLConfig), (28 bytes).
    Removing stm32f10x_rcc.o(i.RCC_RTCCLKCmd), (12 bytes).
    Removing stm32f10x_rcc.o(i.RCC_RTCCLKConfig), (16 bytes).
    Removing stm32f10x_rcc.o(i.RCC_SYSCLKConfig), (24 bytes).
    Removing stm32f10x_rcc.o(i.RCC_USBCLKConfig), (12 bytes).
    Removing stm32f10x_rcc.o(i.RCC_WaitForHSEStartUp), (56 bytes).
    Removing stm32f10x_tim.o(.rev16_text), (4 bytes).
    Removing stm32f10x_tim.o(.revsh_text), (4 bytes).
    Removing stm32f10x_tim.o(.rrx_text), (6 bytes).
    Removing stm32f10x_tim.o(i.TI1_Config), (128 bytes).
    Removing stm32f10x_tim.o(i.TI2_Config), (152 bytes).
    Removing stm32f10x_tim.o(i.TI3_Config), (144 bytes).
    Removing stm32f10x_tim.o(i.TI4_Config), (152 bytes).
    Removing stm32f10x_tim.o(i.TIM_ARRPreloadConfig), (24 bytes).
    Removing stm32f10x_tim.o(i.TIM_BDTRConfig), (32 bytes).
    Removing stm32f10x_tim.o(i.TIM_BDTRStructInit), (18 bytes).
    Removing stm32f10x_tim.o(i.TIM_CCPreloadControl), (24 bytes).
    Removing stm32f10x_tim.o(i.TIM_CCxCmd), (30 bytes).
    Removing stm32f10x_tim.o(i.TIM_CCxNCmd), (30 bytes).
    Removing stm32f10x_tim.o(i.TIM_ClearFlag), (6 bytes).
    Removing stm32f10x_tim.o(i.TIM_ClearOC1Ref), (18 bytes).
    Removing stm32f10x_tim.o(i.TIM_ClearOC2Ref), (24 bytes).
    Removing stm32f10x_tim.o(i.TIM_ClearOC3Ref), (18 bytes).
    Removing stm32f10x_tim.o(i.TIM_ClearOC4Ref), (24 bytes).
    Removing stm32f10x_tim.o(i.TIM_CounterModeConfig), (18 bytes).
    Removing stm32f10x_tim.o(i.TIM_CtrlPWMOutputs), (30 bytes).
    Removing stm32f10x_tim.o(i.TIM_DMACmd), (18 bytes).
    Removing stm32f10x_tim.o(i.TIM_DMAConfig), (10 bytes).
    Removing stm32f10x_tim.o(i.TIM_DeInit), (488 bytes).
    Removing stm32f10x_tim.o(i.TIM_ETRClockMode1Config), (54 bytes).
    Removing stm32f10x_tim.o(i.TIM_ETRClockMode2Config), (32 bytes).
    Removing stm32f10x_tim.o(i.TIM_ETRConfig), (28 bytes).
    Removing stm32f10x_tim.o(i.TIM_EncoderInterfaceConfig), (66 bytes).
    Removing stm32f10x_tim.o(i.TIM_ForcedOC1Config), (18 bytes).
    Removing stm32f10x_tim.o(i.TIM_ForcedOC2Config), (26 bytes).
    Removing stm32f10x_tim.o(i.TIM_ForcedOC3Config), (18 bytes).
    Removing stm32f10x_tim.o(i.TIM_ForcedOC4Config), (26 bytes).
    Removing stm32f10x_tim.o(i.TIM_GenerateEvent), (4 bytes).
    Removing stm32f10x_tim.o(i.TIM_GetCapture1), (6 bytes).
    Removing stm32f10x_tim.o(i.TIM_GetCapture2), (6 bytes).
    Removing stm32f10x_tim.o(i.TIM_GetCapture3), (6 bytes).
    Removing stm32f10x_tim.o(i.TIM_GetCapture4), (8 bytes).
    Removing stm32f10x_tim.o(i.TIM_GetCounter), (6 bytes).
    Removing stm32f10x_tim.o(i.TIM_GetFlagStatus), (18 bytes).
    Removing stm32f10x_tim.o(i.TIM_GetPrescaler), (6 bytes).
    Removing stm32f10x_tim.o(i.TIM_ICInit), (172 bytes).
    Removing stm32f10x_tim.o(i.TIM_ICStructInit), (18 bytes).
    Removing stm32f10x_tim.o(i.TIM_ITRxExternalClockConfig), (24 bytes).
    Removing stm32f10x_tim.o(i.TIM_InternalClockConfig), (12 bytes).
    Removing stm32f10x_tim.o(i.TIM_OC1FastConfig), (18 bytes).
    Removing stm32f10x_tim.o(i.TIM_OC1Init), (152 bytes).
    Removing stm32f10x_tim.o(i.TIM_OC1NPolarityConfig), (18 bytes).
    Removing stm32f10x_tim.o(i.TIM_OC1PolarityConfig), (18 bytes).
    Removing stm32f10x_tim.o(i.TIM_OC1PreloadConfig), (18 bytes).
    Removing stm32f10x_tim.o(i.TIM_OC2FastConfig), (26 bytes).
    Removing stm32f10x_tim.o(i.TIM_OC2Init), (164 bytes).
    Removing stm32f10x_tim.o(i.TIM_OC2NPolarityConfig), (26 bytes).
    Removing stm32f10x_tim.o(i.TIM_OC2PolarityConfig), (26 bytes).
    Removing stm32f10x_tim.o(i.TIM_OC2PreloadConfig), (26 bytes).
    Removing stm32f10x_tim.o(i.TIM_OC3FastConfig), (18 bytes).
    Removing stm32f10x_tim.o(i.TIM_OC3Init), (160 bytes).
    Removing stm32f10x_tim.o(i.TIM_OC3NPolarityConfig), (26 bytes).
    Removing stm32f10x_tim.o(i.TIM_OC3PolarityConfig), (26 bytes).
    Removing stm32f10x_tim.o(i.TIM_OC3PreloadConfig), (18 bytes).
    Removing stm32f10x_tim.o(i.TIM_OC4FastConfig), (26 bytes).
    Removing stm32f10x_tim.o(i.TIM_OC4Init), (124 bytes).
    Removing stm32f10x_tim.o(i.TIM_OC4PolarityConfig), (26 bytes).
    Removing stm32f10x_tim.o(i.TIM_OC4PreloadConfig), (26 bytes).
    Removing stm32f10x_tim.o(i.TIM_OCStructInit), (20 bytes).
    Removing stm32f10x_tim.o(i.TIM_PWMIConfig), (124 bytes).
    Removing stm32f10x_tim.o(i.TIM_PrescalerConfig), (6 bytes).
    Removing stm32f10x_tim.o(i.TIM_SelectCCDMA), (24 bytes).
    Removing stm32f10x_tim.o(i.TIM_SelectCOM), (24 bytes).
    Removing stm32f10x_tim.o(i.TIM_SelectHallSensor), (24 bytes).
    Removing stm32f10x_tim.o(i.TIM_SelectInputTrigger), (18 bytes).
    Removing stm32f10x_tim.o(i.TIM_SelectMasterSlaveMode), (18 bytes).
    Removing stm32f10x_tim.o(i.TIM_SelectOCxM), (82 bytes).
    Removing stm32f10x_tim.o(i.TIM_SelectOnePulseMode), (18 bytes).
    Removing stm32f10x_tim.o(i.TIM_SelectOutputTrigger), (18 bytes).
    Removing stm32f10x_tim.o(i.TIM_SelectSlaveMode), (18 bytes).
    Removing stm32f10x_tim.o(i.TIM_SetAutoreload), (4 bytes).
    Removing stm32f10x_tim.o(i.TIM_SetClockDivision), (18 bytes).
    Removing stm32f10x_tim.o(i.TIM_SetCompare1), (4 bytes).
    Removing stm32f10x_tim.o(i.TIM_SetCompare2), (4 bytes).
    Removing stm32f10x_tim.o(i.TIM_SetCompare3), (4 bytes).
    Removing stm32f10x_tim.o(i.TIM_SetCompare4), (6 bytes).
    Removing stm32f10x_tim.o(i.TIM_SetCounter), (4 bytes).
    Removing stm32f10x_tim.o(i.TIM_SetIC1Prescaler), (18 bytes).
    Removing stm32f10x_tim.o(i.TIM_SetIC2Prescaler), (26 bytes).
    Removing stm32f10x_tim.o(i.TIM_SetIC3Prescaler), (18 bytes).
    Removing stm32f10x_tim.o(i.TIM_SetIC4Prescaler), (26 bytes).
    Removing stm32f10x_tim.o(i.TIM_TIxExternalClockConfig), (62 bytes).
    Removing stm32f10x_tim.o(i.TIM_TimeBaseStructInit), (18 bytes).
    Removing stm32f10x_tim.o(i.TIM_UpdateDisableConfig), (24 bytes).
    Removing stm32f10x_tim.o(i.TIM_UpdateRequestConfig), (24 bytes).
    Removing stm32f10x_usart.o(.rev16_text), (4 bytes).
    Removing stm32f10x_usart.o(.revsh_text), (4 bytes).
    Removing stm32f10x_usart.o(.rrx_text), (6 bytes).
    Removing stm32f10x_usart.o(i.USART_ClearFlag), (18 bytes).
    Removing stm32f10x_usart.o(i.USART_ClearITPendingBit), (30 bytes).
    Removing stm32f10x_usart.o(i.USART_ClockInit), (34 bytes).
    Removing stm32f10x_usart.o(i.USART_ClockStructInit), (12 bytes).
    Removing stm32f10x_usart.o(i.USART_DMACmd), (18 bytes).
    Removing stm32f10x_usart.o(i.USART_GetFlagStatus), (26 bytes).
    Removing stm32f10x_usart.o(i.USART_GetITStatus), (84 bytes).
    Removing stm32f10x_usart.o(i.USART_HalfDuplexCmd), (24 bytes).
    Removing stm32f10x_usart.o(i.USART_IrDACmd), (24 bytes).
    Removing stm32f10x_usart.o(i.USART_IrDAConfig), (18 bytes).
    Removing stm32f10x_usart.o(i.USART_LINBreakDetectLengthConfig), (18 bytes).
    Removing stm32f10x_usart.o(i.USART_LINCmd), (24 bytes).
    Removing stm32f10x_usart.o(i.USART_OneBitMethodCmd), (24 bytes).
    Removing stm32f10x_usart.o(i.USART_OverSampling8Cmd), (22 bytes).
    Removing stm32f10x_usart.o(i.USART_ReceiveData), (10 bytes).
    Removing stm32f10x_usart.o(i.USART_ReceiverWakeUpCmd), (24 bytes).
    Removing stm32f10x_usart.o(i.USART_SendBreak), (10 bytes).
    Removing stm32f10x_usart.o(i.USART_SendData), (8 bytes).
    Removing stm32f10x_usart.o(i.USART_SetAddress), (18 bytes).
    Removing stm32f10x_usart.o(i.USART_SetGuardTime), (16 bytes).
    Removing stm32f10x_usart.o(i.USART_SetPrescaler), (16 bytes).
    Removing stm32f10x_usart.o(i.USART_SmartCardCmd), (24 bytes).
    Removing stm32f10x_usart.o(i.USART_SmartCardNACKCmd), (24 bytes).
    Removing stm32f10x_usart.o(i.USART_StructInit), (24 bytes).
    Removing stm32f10x_usart.o(i.USART_WakeUpConfig), (18 bytes).
    Removing dadd.o(.text), (334 bytes).
    Removing dmul.o(.text), (228 bytes).
    Removing ddiv.o(.text), (222 bytes).
    Removing dfixul.o(.text), (48 bytes).
    Removing cdrcmple.o(.text), (48 bytes).
    Removing depilogue.o(.text), (186 bytes).

411 unused section(s) (total 14610 bytes) removed from the image.

==============================================================================

Image Symbol Table

    Local Symbols

    Symbol Name                              Value     Ov Type        Size  Object(Section)

    ../clib/../cmprslib/zerorunl2.c          0x00000000   Number         0  __dczerorl2.o ABSOLUTE
    ../clib/microlib/division.c              0x00000000   Number         0  uidiv.o ABSOLUTE
    ../clib/microlib/division.c              0x00000000   Number         0  uldiv.o ABSOLUTE
    ../clib/microlib/init/entry.s            0x00000000   Number         0  entry9b.o ABSOLUTE
    ../clib/microlib/init/entry.s            0x00000000   Number         0  entry9a.o ABSOLUTE
    ../clib/microlib/init/entry.s            0x00000000   Number         0  entry8b.o ABSOLUTE
    ../clib/microlib/init/entry.s            0x00000000   Number         0  entry8a.o ABSOLUTE
    ../clib/microlib/init/entry.s            0x00000000   Number         0  entry7a.o ABSOLUTE
    ../clib/microlib/init/entry.s            0x00000000   Number         0  entry7b.o ABSOLUTE
    ../clib/microlib/init/entry.s            0x00000000   Number         0  entry5.o ABSOLUTE
    ../clib/microlib/init/entry.s            0x00000000   Number         0  entry2.o ABSOLUTE
    ../clib/microlib/init/entry.s            0x00000000   Number         0  entry.o ABSOLUTE
    ../clib/microlib/init/entry.s            0x00000000   Number         0  entry11b.o ABSOLUTE
    ../clib/microlib/init/entry.s            0x00000000   Number         0  entry11a.o ABSOLUTE
    ../clib/microlib/init/entry.s            0x00000000   Number         0  entry10b.o ABSOLUTE
    ../clib/microlib/init/entry.s            0x00000000   Number         0  entry10a.o ABSOLUTE
    ../clib/microlib/longlong.c              0x00000000   Number         0  llsshr.o ABSOLUTE
    ../clib/microlib/longlong.c              0x00000000   Number         0  llushr.o ABSOLUTE
    ../clib/microlib/longlong.c              0x00000000   Number         0  llshl.o ABSOLUTE
    ../clib/microlib/printf/printf.c         0x00000000   Number         0  printf2.o ABSOLUTE
    ../clib/microlib/printf/printf.c         0x00000000   Number         0  printf3.o ABSOLUTE
    ../clib/microlib/printf/printf.c         0x00000000   Number         0  printf4.o ABSOLUTE
    ../clib/microlib/printf/printf.c         0x00000000   Number         0  printf5.o ABSOLUTE
    ../clib/microlib/printf/printf.c         0x00000000   Number         0  printf6.o ABSOLUTE
    ../clib/microlib/printf/printf.c         0x00000000   Number         0  printf7.o ABSOLUTE
    ../clib/microlib/printf/printf.c         0x00000000   Number         0  printf8.o ABSOLUTE
    ../clib/microlib/printf/printf.c         0x00000000   Number         0  printfa.o ABSOLUTE
    ../clib/microlib/printf/printf.c         0x00000000   Number         0  printfb.o ABSOLUTE
    ../clib/microlib/printf/printf.c         0x00000000   Number         0  printf0.o ABSOLUTE
    ../clib/microlib/printf/printf.c         0x00000000   Number         0  printf1.o ABSOLUTE
    ../clib/microlib/printf/stubs.s          0x00000000   Number         0  stubs.o ABSOLUTE
    ../clib/microlib/stdio/fflush.c          0x00000000   Number         0  fflush.o ABSOLUTE
    ../clib/microlib/stdlib/abort.c          0x00000000   Number         0  abort.o ABSOLUTE
    ../clib/microlib/stdlib/rand.c           0x00000000   Number         0  rand.o ABSOLUTE
    ../clib/microlib/string/memcmp.c         0x00000000   Number         0  memcmp.o ABSOLUTE
    ../clib/microlib/string/memcpy.c         0x00000000   Number         0  memcpya.o ABSOLUTE
    ../clib/microlib/string/memcpy.c         0x00000000   Number         0  memcpyb.o ABSOLUTE
    ../clib/microlib/string/memset.c         0x00000000   Number         0  memseta.o ABSOLUTE
    ../clib/microlib/string/strcmp.c         0x00000000   Number         0  strcmp.o ABSOLUTE
    ../clib/microlib/string/strcpy.c         0x00000000   Number         0  strcpy.o ABSOLUTE
    ../clib/microlib/string/strlen.c         0x00000000   Number         0  strlen.o ABSOLUTE
    ../clib/microlib/string/strncpy.c        0x00000000   Number         0  strncpy.o ABSOLUTE
    ../clib/microlib/stubs.s                 0x00000000   Number         0  iusefp.o ABSOLUTE
    ../clib/microlib/stubs.s                 0x00000000   Number         0  useno.o ABSOLUTE
    ../fplib/microlib/fpadd.c                0x00000000   Number         0  dadd.o ABSOLUTE
    ../fplib/microlib/fpdiv.c                0x00000000   Number         0  ddiv.o ABSOLUTE
    ../fplib/microlib/fpepilogue.c           0x00000000   Number         0  depilogue.o ABSOLUTE
    ../fplib/microlib/fpfix.c                0x00000000   Number         0  dfixul.o ABSOLUTE
    ../fplib/microlib/fpmul.c                0x00000000   Number         0  dmul.o ABSOLUTE
    Drivers\DELAY\delay.c                    0x00000000   Number         0  delay.o ABSOLUTE
    Drivers\KEY\key.c                        0x00000000   Number         0  key.o ABSOLUTE
    Drivers\LED\led.c                        0x00000000   Number         0  led.o ABSOLUTE
    Drivers\NVIC\NVIC.c                      0x00000000   Number         0  nvic.o ABSOLUTE
    Drivers\SYS\sys1.c                       0x00000000   Number         0  sys1.o ABSOLUTE
    Drivers\TIMER\Timer.c                    0x00000000   Number         0  timer.o ABSOLUTE
    Drivers\USART\usart1.c                   0x00000000   Number         0  usart1.o ABSOLUTE
    Drivers\USART\usart2.c                   0x00000000   Number         0  usart2.o ABSOLUTE
    Drivers\\DELAY\\delay.c                  0x00000000   Number         0  delay.o ABSOLUTE
    Drivers\\KEY\\key.c                      0x00000000   Number         0  key.o ABSOLUTE
    Drivers\\LED\\led.c                      0x00000000   Number         0  led.o ABSOLUTE
    Drivers\\NVIC\\NVIC.c                    0x00000000   Number         0  nvic.o ABSOLUTE
    Drivers\\SYS\\sys1.c                     0x00000000   Number         0  sys1.o ABSOLUTE
    Drivers\\TIMER\\Timer.c                  0x00000000   Number         0  timer.o ABSOLUTE
    Drivers\\USART\\usart1.c                 0x00000000   Number         0  usart1.o ABSOLUTE
    Drivers\\USART\\usart2.c                 0x00000000   Number         0  usart2.o ABSOLUTE
    Drivers\\lwip-1.4.1\\arch\\sio.c         0x00000000   Number         0  sio.o ABSOLUTE
    Drivers\\lwip-1.4.1\\arch\\sys_arch.c    0x00000000   Number         0  sys_arch.o ABSOLUTE
    Drivers\\lwip-1.4.1\\core\\def.c         0x00000000   Number         0  def.o ABSOLUTE
    Drivers\\lwip-1.4.1\\core\\dhcp.c        0x00000000   Number         0  dhcp.o ABSOLUTE
    Drivers\\lwip-1.4.1\\core\\dns.c         0x00000000   Number         0  dns.o ABSOLUTE
    Drivers\\lwip-1.4.1\\core\\init.c        0x00000000   Number         0  init.o ABSOLUTE
    Drivers\\lwip-1.4.1\\core\\ipv4\\autoip.c 0x00000000   Number         0  autoip.o ABSOLUTE
    Drivers\\lwip-1.4.1\\core\\ipv4\\icmp.c  0x00000000   Number         0  icmp.o ABSOLUTE
    Drivers\\lwip-1.4.1\\core\\ipv4\\igmp.c  0x00000000   Number         0  igmp.o ABSOLUTE
    Drivers\\lwip-1.4.1\\core\\ipv4\\inet.c  0x00000000   Number         0  inet.o ABSOLUTE
    Drivers\\lwip-1.4.1\\core\\ipv4\\inet_chksum.c 0x00000000   Number         0  inet_chksum.o ABSOLUTE
    Drivers\\lwip-1.4.1\\core\\ipv4\\ip.c    0x00000000   Number         0  ip.o ABSOLUTE
    Drivers\\lwip-1.4.1\\core\\ipv4\\ip_addr.c 0x00000000   Number         0  ip_addr.o ABSOLUTE
    Drivers\\lwip-1.4.1\\core\\ipv4\\ip_frag.c 0x00000000   Number         0  ip_frag.o ABSOLUTE
    Drivers\\lwip-1.4.1\\core\\mem.c         0x00000000   Number         0  mem.o ABSOLUTE
    Drivers\\lwip-1.4.1\\core\\memp.c        0x00000000   Number         0  memp.o ABSOLUTE
    Drivers\\lwip-1.4.1\\core\\netif.c       0x00000000   Number         0  netif.o ABSOLUTE
    Drivers\\lwip-1.4.1\\core\\pbuf.c        0x00000000   Number         0  pbuf.o ABSOLUTE
    Drivers\\lwip-1.4.1\\core\\raw.c         0x00000000   Number         0  raw.o ABSOLUTE
    Drivers\\lwip-1.4.1\\core\\stats.c       0x00000000   Number         0  stats.o ABSOLUTE
    Drivers\\lwip-1.4.1\\core\\sys.c         0x00000000   Number         0  sys.o ABSOLUTE
    Drivers\\lwip-1.4.1\\core\\tcp.c         0x00000000   Number         0  tcp.o ABSOLUTE
    Drivers\\lwip-1.4.1\\core\\tcp_in.c      0x00000000   Number         0  tcp_in.o ABSOLUTE
    Drivers\\lwip-1.4.1\\core\\tcp_out.c     0x00000000   Number         0  tcp_out.o ABSOLUTE
    Drivers\\lwip-1.4.1\\core\\timers.c      0x00000000   Number         0  timers.o ABSOLUTE
    Drivers\\lwip-1.4.1\\core\\udp.c         0x00000000   Number         0  udp.o ABSOLUTE
    Drivers\\lwip-1.4.1\\netif\\ppp\\auth.c  0x00000000   Number         0  auth.o ABSOLUTE
    Drivers\\lwip-1.4.1\\netif\\ppp\\chap.c  0x00000000   Number         0  chap.o ABSOLUTE
    Drivers\\lwip-1.4.1\\netif\\ppp\\chpms.c 0x00000000   Number         0  chpms.o ABSOLUTE
    Drivers\\lwip-1.4.1\\netif\\ppp\\fsm.c   0x00000000   Number         0  fsm.o ABSOLUTE
    Drivers\\lwip-1.4.1\\netif\\ppp\\ipcp.c  0x00000000   Number         0  ipcp.o ABSOLUTE
    Drivers\\lwip-1.4.1\\netif\\ppp\\lcp.c   0x00000000   Number         0  lcp.o ABSOLUTE
    Drivers\\lwip-1.4.1\\netif\\ppp\\magic.c 0x00000000   Number         0  magic.o ABSOLUTE
    Drivers\\lwip-1.4.1\\netif\\ppp\\md5.c   0x00000000   Number         0  md5.o ABSOLUTE
    Drivers\\lwip-1.4.1\\netif\\ppp\\pap.c   0x00000000   Number         0  pap.o ABSOLUTE
    Drivers\\lwip-1.4.1\\netif\\ppp\\ppp.c   0x00000000   Number         0  ppp.o ABSOLUTE
    Drivers\\lwip-1.4.1\\netif\\ppp\\ppp_oe.c 0x00000000   Number         0  ppp_oe.o ABSOLUTE
    Drivers\\lwip-1.4.1\\netif\\ppp\\randm.c 0x00000000   Number         0  randm.o ABSOLUTE
    Drivers\\lwip-1.4.1\\netif\\ppp\\vj.c    0x00000000   Number         0  vj.o ABSOLUTE
    Drivers\lwip-1.4.1\arch\sio.c            0x00000000   Number         0  sio.o ABSOLUTE
    Drivers\lwip-1.4.1\arch\sys_arch.c       0x00000000   Number         0  sys_arch.o ABSOLUTE
    Drivers\lwip-1.4.1\core\def.c            0x00000000   Number         0  def.o ABSOLUTE
    Drivers\lwip-1.4.1\core\dhcp.c           0x00000000   Number         0  dhcp.o ABSOLUTE
    Drivers\lwip-1.4.1\core\dns.c            0x00000000   Number         0  dns.o ABSOLUTE
    Drivers\lwip-1.4.1\core\init.c           0x00000000   Number         0  init.o ABSOLUTE
    Drivers\lwip-1.4.1\core\ipv4\autoip.c    0x00000000   Number         0  autoip.o ABSOLUTE
    Drivers\lwip-1.4.1\core\ipv4\icmp.c      0x00000000   Number         0  icmp.o ABSOLUTE
    Drivers\lwip-1.4.1\core\ipv4\igmp.c      0x00000000   Number         0  igmp.o ABSOLUTE
    Drivers\lwip-1.4.1\core\ipv4\inet.c      0x00000000   Number         0  inet.o ABSOLUTE
    Drivers\lwip-1.4.1\core\ipv4\inet_chksum.c 0x00000000   Number         0  inet_chksum.o ABSOLUTE
    Drivers\lwip-1.4.1\core\ipv4\ip.c        0x00000000   Number         0  ip.o ABSOLUTE
    Drivers\lwip-1.4.1\core\ipv4\ip_addr.c   0x00000000   Number         0  ip_addr.o ABSOLUTE
    Drivers\lwip-1.4.1\core\ipv4\ip_frag.c   0x00000000   Number         0  ip_frag.o ABSOLUTE
    Drivers\lwip-1.4.1\core\mem.c            0x00000000   Number         0  mem.o ABSOLUTE
    Drivers\lwip-1.4.1\core\memp.c           0x00000000   Number         0  memp.o ABSOLUTE
    Drivers\lwip-1.4.1\core\netif.c          0x00000000   Number         0  netif.o ABSOLUTE
    Drivers\lwip-1.4.1\core\pbuf.c           0x00000000   Number         0  pbuf.o ABSOLUTE
    Drivers\lwip-1.4.1\core\raw.c            0x00000000   Number         0  raw.o ABSOLUTE
    Drivers\lwip-1.4.1\core\stats.c          0x00000000   Number         0  stats.o ABSOLUTE
    Drivers\lwip-1.4.1\core\sys.c            0x00000000   Number         0  sys.o ABSOLUTE
    Drivers\lwip-1.4.1\core\tcp.c            0x00000000   Number         0  tcp.o ABSOLUTE
    Drivers\lwip-1.4.1\core\tcp_in.c         0x00000000   Number         0  tcp_in.o ABSOLUTE
    Drivers\lwip-1.4.1\core\tcp_out.c        0x00000000   Number         0  tcp_out.o ABSOLUTE
    Drivers\lwip-1.4.1\core\timers.c         0x00000000   Number         0  timers.o ABSOLUTE
    Drivers\lwip-1.4.1\core\udp.c            0x00000000   Number         0  udp.o ABSOLUTE
    Drivers\lwip-1.4.1\netif\ppp\auth.c      0x00000000   Number         0  auth.o ABSOLUTE
    Drivers\lwip-1.4.1\netif\ppp\chap.c      0x00000000   Number         0  chap.o ABSOLUTE
    Drivers\lwip-1.4.1\netif\ppp\chpms.c     0x00000000   Number         0  chpms.o ABSOLUTE
    Drivers\lwip-1.4.1\netif\ppp\fsm.c       0x00000000   Number         0  fsm.o ABSOLUTE
    Drivers\lwip-1.4.1\netif\ppp\ipcp.c      0x00000000   Number         0  ipcp.o ABSOLUTE
    Drivers\lwip-1.4.1\netif\ppp\lcp.c       0x00000000   Number         0  lcp.o ABSOLUTE
    Drivers\lwip-1.4.1\netif\ppp\magic.c     0x00000000   Number         0  magic.o ABSOLUTE
    Drivers\lwip-1.4.1\netif\ppp\md5.c       0x00000000   Number         0  md5.o ABSOLUTE
    Drivers\lwip-1.4.1\netif\ppp\pap.c       0x00000000   Number         0  pap.o ABSOLUTE
    Drivers\lwip-1.4.1\netif\ppp\ppp.c       0x00000000   Number         0  ppp.o ABSOLUTE
    Drivers\lwip-1.4.1\netif\ppp\ppp_oe.c    0x00000000   Number         0  ppp_oe.o ABSOLUTE
    Drivers\lwip-1.4.1\netif\ppp\randm.c     0x00000000   Number         0  randm.o ABSOLUTE
    Drivers\lwip-1.4.1\netif\ppp\vj.c        0x00000000   Number         0  vj.o ABSOLUTE
    RTE\Device\STM32F103RC\startup_stm32f10x_hd.s 0x00000000   Number         0  startup_stm32f10x_hd.o ABSOLUTE
    RTE\Device\STM32F103RC\system_stm32f10x.c 0x00000000   Number         0  system_stm32f10x.o ABSOLUTE
    RTE\\Device\\STM32F103RC\\system_stm32f10x.c 0x00000000   Number         0  system_stm32f10x.o ABSOLUTE
    cdrcmple.s                               0x00000000   Number         0  cdrcmple.o ABSOLUTE
    d:\Keil_v5\ARM\PACK\Keil\STM32F1xx_DFP\2.0.0\Device\StdPeriph_Driver\src\misc.c 0x00000000   Number         0  misc.o ABSOLUTE
    d:\Keil_v5\ARM\PACK\Keil\STM32F1xx_DFP\2.0.0\Device\StdPeriph_Driver\src\stm32f10x_exti.c 0x00000000   Number         0  stm32f10x_exti.o ABSOLUTE
    d:\Keil_v5\ARM\PACK\Keil\STM32F1xx_DFP\2.0.0\Device\StdPeriph_Driver\src\stm32f10x_gpio.c 0x00000000   Number         0  stm32f10x_gpio.o ABSOLUTE
    d:\Keil_v5\ARM\PACK\Keil\STM32F1xx_DFP\2.0.0\Device\StdPeriph_Driver\src\stm32f10x_rcc.c 0x00000000   Number         0  stm32f10x_rcc.o ABSOLUTE
    d:\Keil_v5\ARM\PACK\Keil\STM32F1xx_DFP\2.0.0\Device\StdPeriph_Driver\src\stm32f10x_tim.c 0x00000000   Number         0  stm32f10x_tim.o ABSOLUTE
    d:\Keil_v5\ARM\PACK\Keil\STM32F1xx_DFP\2.0.0\Device\StdPeriph_Driver\src\stm32f10x_usart.c 0x00000000   Number         0  stm32f10x_usart.o ABSOLUTE
    d:\\Keil_v5\\ARM\\PACK\\Keil\\STM32F1xx_DFP\\2.0.0\\Device\\StdPeriph_Driver\\src\\misc.c 0x00000000   Number         0  misc.o ABSOLUTE
    d:\\Keil_v5\\ARM\\PACK\\Keil\\STM32F1xx_DFP\\2.0.0\\Device\\StdPeriph_Driver\\src\\stm32f10x_exti.c 0x00000000   Number         0  stm32f10x_exti.o ABSOLUTE
    d:\\Keil_v5\\ARM\\PACK\\Keil\\STM32F1xx_DFP\\2.0.0\\Device\\StdPeriph_Driver\\src\\stm32f10x_gpio.c 0x00000000   Number         0  stm32f10x_gpio.o ABSOLUTE
    d:\\Keil_v5\\ARM\\PACK\\Keil\\STM32F1xx_DFP\\2.0.0\\Device\\StdPeriph_Driver\\src\\stm32f10x_rcc.c 0x00000000   Number         0  stm32f10x_rcc.o ABSOLUTE
    d:\\Keil_v5\\ARM\\PACK\\Keil\\STM32F1xx_DFP\\2.0.0\\Device\\StdPeriph_Driver\\src\\stm32f10x_tim.c 0x00000000   Number         0  stm32f10x_tim.o ABSOLUTE
    d:\\Keil_v5\\ARM\\PACK\\Keil\\STM32F1xx_DFP\\2.0.0\\Device\\StdPeriph_Driver\\src\\stm32f10x_usart.c 0x00000000   Number         0  stm32f10x_usart.o ABSOLUTE
    dc.s                                     0x00000000   Number         0  dc.o ABSOLUTE
    handlers.s                               0x00000000   Number         0  handlers.o ABSOLUTE
    init.s                                   0x00000000   Number         0  init.o ABSOLUTE
    main.c                                   0x00000000   Number         0  main.o ABSOLUTE
    main.c                                   0x00000000   Number         0  main.o ABSOLUTE
    RESET                                    0x08000000   Section      304  startup_stm32f10x_hd.o(RESET)
    .ARM.Collect$$$$00000000                 0x08000130   Section        0  entry.o(.ARM.Collect$$$$00000000)
    .ARM.Collect$$$$00000001                 0x08000130   Section        4  entry2.o(.ARM.Collect$$$$00000001)
    .ARM.Collect$$$$00000004                 0x08000134   Section        4  entry5.o(.ARM.Collect$$$$00000004)
    .ARM.Collect$$$$00000008                 0x08000138   Section        0  entry7b.o(.ARM.Collect$$$$00000008)
    .ARM.Collect$$$$0000000A                 0x08000138   Section        0  entry8b.o(.ARM.Collect$$$$0000000A)
    .ARM.Collect$$$$0000000B                 0x08000138   Section        8  entry9a.o(.ARM.Collect$$$$0000000B)
    .ARM.Collect$$$$0000000D                 0x08000140   Section        0  entry10a.o(.ARM.Collect$$$$0000000D)
    .ARM.Collect$$$$0000000F                 0x08000140   Section        0  entry11a.o(.ARM.Collect$$$$0000000F)
    .ARM.Collect$$$$00002712                 0x08000140   Section        4  entry2.o(.ARM.Collect$$$$00002712)
    __lit__00000000                          0x08000140   Data           4  entry2.o(.ARM.Collect$$$$00002712)
    .text                                    0x08000144   Section       36  startup_stm32f10x_hd.o(.text)
    .text                                    0x08000168   Section        0  rand.o(.text)
    .text                                    0x0800018c   Section        0  memcpya.o(.text)
    .text                                    0x080001b0   Section        0  memseta.o(.text)
    .text                                    0x080001d4   Section        0  strncpy.o(.text)
    .text                                    0x080001ec   Section        0  strlen.o(.text)
    .text                                    0x080001fa   Section        0  strcmp.o(.text)
    .text                                    0x08000216   Section        0  memcmp.o(.text)
    .text                                    0x08000230   Section        0  strcpy.o(.text)
    .text                                    0x08000242   Section        0  uidiv.o(.text)
    .text                                    0x08000270   Section       36  init.o(.text)
    .text                                    0x08000294   Section        0  __dczerorl2.o(.text)
    i.ChapAuthPeer                           0x080002ec   Section        0  chap.o(i.ChapAuthPeer)
    i.ChapAuthWithPeer                       0x08000334   Section        0  chap.o(i.ChapAuthWithPeer)
    i.ChapChallengeTimeout                   0x0800036c   Section        0  chap.o(i.ChapChallengeTimeout)
    ChapChallengeTimeout                     0x0800036d   Thumb Code    54  chap.o(i.ChapChallengeTimeout)
    i.ChapGenChallenge                       0x080003a4   Section        0  chap.o(i.ChapGenChallenge)
    ChapGenChallenge                         0x080003a5   Thumb Code   102  chap.o(i.ChapGenChallenge)
    i.ChapInit                               0x0800046c   Section        0  chap.o(i.ChapInit)
    ChapInit                                 0x0800046d   Thumb Code    44  chap.o(i.ChapInit)
    i.ChapInput                              0x0800049c   Section        0  chap.o(i.ChapInput)
    ChapInput                                0x0800049d   Thumb Code   158  chap.o(i.ChapInput)
    i.ChapLowerDown                          0x08000540   Section        0  chap.o(i.ChapLowerDown)
    ChapLowerDown                            0x08000541   Thumb Code    80  chap.o(i.ChapLowerDown)
    i.ChapLowerUp                            0x080005a0   Section        0  chap.o(i.ChapLowerUp)
    ChapLowerUp                              0x080005a1   Thumb Code    72  chap.o(i.ChapLowerUp)
    i.ChapProtocolReject                     0x080005ec   Section        0  chap.o(i.ChapProtocolReject)
    ChapProtocolReject                       0x080005ed   Thumb Code    66  chap.o(i.ChapProtocolReject)
    i.ChapReceiveChallenge                   0x08000634   Section        0  chap.o(i.ChapReceiveChallenge)
    ChapReceiveChallenge                     0x08000635   Thumb Code   270  chap.o(i.ChapReceiveChallenge)
    i.ChapReceiveFailure                     0x08000750   Section        0  chap.o(i.ChapReceiveFailure)
    ChapReceiveFailure                       0x08000751   Thumb Code    44  chap.o(i.ChapReceiveFailure)
    i.ChapReceiveResponse                    0x08000780   Section        0  chap.o(i.ChapReceiveResponse)
    ChapReceiveResponse                      0x08000781   Thumb Code   352  chap.o(i.ChapReceiveResponse)
    i.ChapReceiveSuccess                     0x080008e8   Section        0  chap.o(i.ChapReceiveSuccess)
    ChapReceiveSuccess                       0x080008e9   Thumb Code    56  chap.o(i.ChapReceiveSuccess)
    i.ChapRechallenge                        0x08000924   Section        0  chap.o(i.ChapRechallenge)
    ChapRechallenge                          0x08000925   Thumb Code    34  chap.o(i.ChapRechallenge)
    i.ChapResponseTimeout                    0x08000946   Section        0  chap.o(i.ChapResponseTimeout)
    ChapResponseTimeout                      0x08000947   Thumb Code    24  chap.o(i.ChapResponseTimeout)
    i.ChapSendChallenge                      0x08000960   Section        0  chap.o(i.ChapSendChallenge)
    ChapSendChallenge                        0x08000961   Thumb Code   180  chap.o(i.ChapSendChallenge)
    i.ChapSendResponse                       0x08000a1c   Section        0  chap.o(i.ChapSendResponse)
    ChapSendResponse                         0x08000a1d   Thumb Code   188  chap.o(i.ChapSendResponse)
    i.ChapSendStatus                         0x08000ae0   Section        0  chap.o(i.ChapSendStatus)
    ChapSendStatus                           0x08000ae1   Thumb Code   146  chap.o(i.ChapSendStatus)
    i.EXIT_init                              0x08000ba0   Section        0  nvic.o(i.EXIT_init)
    i.EXTI1_IRQHandler                       0x08000c18   Section        0  nvic.o(i.EXTI1_IRQHandler)
    i.EXTI3_IRQHandler                       0x08000c90   Section        0  nvic.o(i.EXTI3_IRQHandler)
    i.EXTI4_IRQHandler                       0x08000ca4   Section        0  nvic.o(i.EXTI4_IRQHandler)
    i.EXTI_ClearITPendingBit                 0x08000cd4   Section        0  stm32f10x_exti.o(i.EXTI_ClearITPendingBit)
    i.EXTI_GenerateSWInterrupt               0x08000ce0   Section        0  stm32f10x_exti.o(i.EXTI_GenerateSWInterrupt)
    i.EXTI_GetITStatus                       0x08000cf0   Section        0  stm32f10x_exti.o(i.EXTI_GetITStatus)
    i.EXTI_Init                              0x08000d18   Section        0  stm32f10x_exti.o(i.EXTI_Init)
    i.GPIO_Init                              0x08000dac   Section        0  stm32f10x_gpio.o(i.GPIO_Init)
    i.GPIO_SetBits                           0x08000ec2   Section        0  stm32f10x_gpio.o(i.GPIO_SetBits)
    i.GetMask                                0x08000ec8   Section        0  ppp.o(i.GetMask)
    i.KEY_Init                               0x08000f0c   Section        0  key.o(i.KEY_Init)
    i.KEY_Scan                               0x08000f8c   Section        0  key.o(i.KEY_Scan)
    i.LED_Init                               0x08001010   Section        0  led.o(i.LED_Init)
    i.LcpEchoCheck                           0x08001060   Section        0  lcp.o(i.LcpEchoCheck)
    LcpEchoCheck                             0x08001061   Thumb Code    88  lcp.o(i.LcpEchoCheck)
    i.LcpEchoTimeout                         0x0800112c   Section        0  lcp.o(i.LcpEchoTimeout)
    LcpEchoTimeout                           0x0800112d   Thumb Code    24  lcp.o(i.LcpEchoTimeout)
    i.LcpLinkFailure                         0x08001148   Section        0  lcp.o(i.LcpLinkFailure)
    LcpLinkFailure                           0x08001149   Thumb Code    20  lcp.o(i.LcpLinkFailure)
    i.LcpSendEchoRequest                     0x08001170   Section        0  lcp.o(i.LcpSendEchoRequest)
    LcpSendEchoRequest                       0x08001171   Thumb Code   120  lcp.o(i.LcpSendEchoRequest)
    i.MD5Final                               0x080011f8   Section        0  md5.o(i.MD5Final)
    i.MD5Init                                0x080012d8   Section        0  md5.o(i.MD5Init)
    i.MD5Update                              0x080012fc   Section        0  md5.o(i.MD5Update)
    i.NVIC_Configuration                     0x080013a8   Section        0  nvic.o(i.NVIC_Configuration)
    i.NVIC_Init                              0x080013b4   Section        0  misc.o(i.NVIC_Init)
    i.NVIC_PriorityGroupConfig               0x08001424   Section        0  misc.o(i.NVIC_PriorityGroupConfig)
    i.RCC_APB1PeriphClockCmd                 0x08001438   Section        0  stm32f10x_rcc.o(i.RCC_APB1PeriphClockCmd)
    i.RCC_APB1PeriphResetCmd                 0x08001458   Section        0  stm32f10x_rcc.o(i.RCC_APB1PeriphResetCmd)
    i.RCC_APB2PeriphClockCmd                 0x08001478   Section        0  stm32f10x_rcc.o(i.RCC_APB2PeriphClockCmd)
    i.RCC_APB2PeriphResetCmd                 0x08001498   Section        0  stm32f10x_rcc.o(i.RCC_APB2PeriphResetCmd)
    i.RCC_GetClocksFreq                      0x080014b8   Section        0  stm32f10x_rcc.o(i.RCC_GetClocksFreq)
    i.SetSysClock                            0x0800158c   Section        0  system_stm32f10x.o(i.SetSysClock)
    SetSysClock                              0x0800158d   Thumb Code     8  system_stm32f10x.o(i.SetSysClock)
    i.SetSysClockTo72                        0x08001594   Section        0  system_stm32f10x.o(i.SetSysClockTo72)
    SetSysClockTo72                          0x08001595   Thumb Code   214  system_stm32f10x.o(i.SetSysClockTo72)
    i.SystemInit                             0x08001674   Section        0  system_stm32f10x.o(i.SystemInit)
    i.TCP_Client_Init                        0x080016d4   Section        0  main.o(i.TCP_Client_Init)
    i.TIM3_IRQHandler                        0x08001708   Section        0  timer.o(i.TIM3_IRQHandler)
    i.TIM3_Int_Init                          0x08001774   Section        0  timer.o(i.TIM3_Int_Init)
    i.TIM4_IRQHandler                        0x080017d4   Section        0  timer.o(i.TIM4_IRQHandler)
    i.TIM4_Init                              0x080018a8   Section        0  timer.o(i.TIM4_Init)
    i.TIM4_Set                               0x0800190c   Section        0  timer.o(i.TIM4_Set)
    i.TIM_ClearITPendingBit                  0x0800193c   Section        0  stm32f10x_tim.o(i.TIM_ClearITPendingBit)
    i.TIM_Cmd                                0x08001942   Section        0  stm32f10x_tim.o(i.TIM_Cmd)
    i.TIM_GetITStatus                        0x0800195a   Section        0  stm32f10x_tim.o(i.TIM_GetITStatus)
    i.TIM_ITConfig                           0x0800197c   Section        0  stm32f10x_tim.o(i.TIM_ITConfig)
    i.TIM_TimeBaseInit                       0x08001990   Section        0  stm32f10x_tim.o(i.TIM_TimeBaseInit)
    i.TcpCli_Connected                       0x08001a34   Section        0  main.o(i.TcpCli_Connected)
    i.Transform                              0x08001a58   Section        0  md5.o(i.Transform)
    Transform                                0x08001a59   Thumb Code  1856  md5.o(i.Transform)
    i.USART1_IRQHandler                      0x08002200   Section        0  usart1.o(i.USART1_IRQHandler)
    i.USART2_IRQHandler                      0x08002204   Section        0  usart2.o(i.USART2_IRQHandler)
    i.USART2_SEND                            0x08002264   Section        0  usart2.o(i.USART2_SEND)
    i.USART_Cmd                              0x08002294   Section        0  stm32f10x_usart.o(i.USART_Cmd)
    i.USART_DeInit                           0x080022ac   Section        0  stm32f10x_usart.o(i.USART_DeInit)
    i.USART_ITConfig                         0x08002348   Section        0  stm32f10x_usart.o(i.USART_ITConfig)
    i.USART_Init                             0x08002394   Section        0  stm32f10x_usart.o(i.USART_Init)
    i.__0printf$3                            0x0800246c   Section        0  printf3.o(i.__0printf$3)
    i.__scatterload_copy                     0x0800248c   Section       14  handlers.o(i.__scatterload_copy)
    i.__scatterload_null                     0x0800249a   Section        2  handlers.o(i.__scatterload_null)
    i.__scatterload_zeroinit                 0x0800249c   Section       14  handlers.o(i.__scatterload_zeroinit)
    i._printf_core                           0x080024ac   Section        0  printf3.o(i._printf_core)
    _printf_core                             0x080024ad   Thumb Code   436  printf3.o(i._printf_core)
    i.auth_ip_addr                           0x08002664   Section        0  auth.o(i.auth_ip_addr)
    i.auth_peer_fail                         0x0800267c   Section        0  auth.o(i.auth_peer_fail)
    i.auth_peer_success                      0x080026a4   Section        0  auth.o(i.auth_peer_success)
    i.auth_reset                             0x08002704   Section        0  auth.o(i.auth_reset)
    i.auth_withpeer_fail                     0x080027c0   Section        0  auth.o(i.auth_withpeer_fail)
    i.auth_withpeer_success                  0x08002824   Section        0  auth.o(i.auth_withpeer_success)
    i.avRandom                               0x0800287c   Section        0  randm.o(i.avRandom)
    i.avRandomInit                           0x08002898   Section        0  randm.o(i.avRandomInit)
    i.avRandomize                            0x080028b8   Section        0  randm.o(i.avRandomize)
    i.bad_ip_adrs                            0x080028f8   Section        0  auth.o(i.bad_ip_adrs)
    i.check_idle                             0x08002928   Section        0  auth.o(i.check_idle)
    check_idle                               0x08002929   Thumb Code    96  auth.o(i.check_idle)
    i.check_passwd                           0x080029a0   Section        0  auth.o(i.check_passwd)
    i.cifaddr                                0x080029b4   Section        0  ppp.o(i.cifaddr)
    i.cifdefaultroute                        0x08002a00   Section        0  ppp.o(i.cifdefaultroute)
    i.connect_time_expired                   0x08002a3c   Section        0  auth.o(i.connect_time_expired)
    connect_time_expired                     0x08002a3d   Thumb Code    14  auth.o(i.connect_time_expired)
    i.delay_init                             0x08002a64   Section        0  delay.o(i.delay_init)
    i.delay_ms                               0x08002aa4   Section        0  delay.o(i.delay_ms)
    i.dns_check_entries                      0x08002ae0   Section        0  dns.o(i.dns_check_entries)
    dns_check_entries                        0x08002ae1   Thumb Code    22  dns.o(i.dns_check_entries)
    i.dns_check_entry                        0x08002af8   Section        0  dns.o(i.dns_check_entry)
    dns_check_entry                          0x08002af9   Thumb Code   298  dns.o(i.dns_check_entry)
    i.dns_compare_name                       0x08002cb0   Section        0  dns.o(i.dns_compare_name)
    dns_compare_name                         0x08002cb1   Thumb Code    60  dns.o(i.dns_compare_name)
    i.dns_init                               0x08002cec   Section        0  dns.o(i.dns_init)
    i.dns_parse_name                         0x08002d64   Section        0  dns.o(i.dns_parse_name)
    dns_parse_name                           0x08002d65   Thumb Code    42  dns.o(i.dns_parse_name)
    i.dns_recv                               0x08002d90   Section        0  dns.o(i.dns_recv)
    dns_recv                                 0x08002d91   Thumb Code   380  dns.o(i.dns_recv)
    i.dns_send                               0x08002f18   Section        0  dns.o(i.dns_send)
    dns_send                                 0x08002f19   Thumb Code   340  dns.o(i.dns_send)
    i.dns_setserver                          0x08003114   Section        0  dns.o(i.dns_setserver)
    i.dns_timer                              0x08003138   Section        0  timers.o(i.dns_timer)
    dns_timer                                0x08003139   Thumb Code    26  timers.o(i.dns_timer)
    i.dns_tmr                                0x08003158   Section        0  dns.o(i.dns_tmr)
    i.fputc                                  0x08003170   Section        0  usart1.o(i.fputc)
    i.fsm_close                              0x0800318c   Section        0  fsm.o(i.fsm_close)
    i.fsm_init                               0x08003240   Section        0  fsm.o(i.fsm_init)
    i.fsm_input                              0x0800325e   Section        0  fsm.o(i.fsm_input)
    i.fsm_lowerdown                          0x0800333c   Section        0  fsm.o(i.fsm_lowerdown)
    i.fsm_lowerup                            0x080033b0   Section        0  fsm.o(i.fsm_lowerup)
    i.fsm_open                               0x080033e8   Section        0  fsm.o(i.fsm_open)
    i.fsm_protreject                         0x08003454   Section        0  fsm.o(i.fsm_protreject)
    i.fsm_rcoderej                           0x08003510   Section        0  fsm.o(i.fsm_rcoderej)
    fsm_rcoderej                             0x08003511   Thumb Code    30  fsm.o(i.fsm_rcoderej)
    i.fsm_rconfack                           0x08003530   Section        0  fsm.o(i.fsm_rconfack)
    fsm_rconfack                             0x08003531   Thumb Code   196  fsm.o(i.fsm_rconfack)
    i.fsm_rconfnakrej                        0x080035f8   Section        0  fsm.o(i.fsm_rconfnakrej)
    fsm_rconfnakrej                          0x080035f9   Thumb Code   196  fsm.o(i.fsm_rconfnakrej)
    i.fsm_rconfreq                           0x080036c0   Section        0  fsm.o(i.fsm_rconfreq)
    fsm_rconfreq                             0x080036c1   Thumb Code   238  fsm.o(i.fsm_rconfreq)
    i.fsm_rtermack                           0x080037b4   Section        0  fsm.o(i.fsm_rtermack)
    fsm_rtermack                             0x080037b5   Thumb Code   116  fsm.o(i.fsm_rtermack)
    i.fsm_rtermreq                           0x0800382c   Section        0  fsm.o(i.fsm_rtermreq)
    fsm_rtermreq                             0x0800382d   Thumb Code   108  fsm.o(i.fsm_rtermreq)
    i.fsm_sconfreq                           0x0800389c   Section        0  fsm.o(i.fsm_sconfreq)
    fsm_sconfreq                             0x0800389d   Thumb Code   174  fsm.o(i.fsm_sconfreq)
    i.fsm_sdata                              0x08003954   Section        0  fsm.o(i.fsm_sdata)
    i.fsm_timeout                            0x080039ec   Section        0  fsm.o(i.fsm_timeout)
    fsm_timeout                              0x080039ed   Thumb Code   204  fsm.o(i.fsm_timeout)
    i.get_idle_time                          0x08003abc   Section        0  ppp.o(i.get_idle_time)
    i.get_pap_passwd                         0x08003ac4   Section        0  auth.o(i.get_pap_passwd)
    get_pap_passwd                           0x08003ac5   Thumb Code    32  auth.o(i.get_pap_passwd)
    i.get_secret                             0x08003aec   Section        0  auth.o(i.get_secret)
    i.have_chap_secret                       0x08003b44   Section        0  auth.o(i.have_chap_secret)
    have_chap_secret                         0x08003b45   Thumb Code     6  auth.o(i.have_chap_secret)
    i.have_pap_secret                        0x08003b4a   Section        0  auth.o(i.have_pap_secret)
    have_pap_secret                          0x08003b4b   Thumb Code     4  auth.o(i.have_pap_secret)
    i.inet_chksum                            0x08003b4e   Section        0  inet_chksum.o(i.inet_chksum)
    i.inet_chksum_pseudo                     0x08003b62   Section        0  inet_chksum.o(i.inet_chksum_pseudo)
    i.ip4_addr_isbroadcast                   0x08003c0c   Section        0  ip_addr.o(i.ip4_addr_isbroadcast)
    i.ip_addr_check                          0x08003c5c   Section        0  auth.o(i.ip_addr_check)
    ip_addr_check                            0x08003c5d   Thumb Code    38  auth.o(i.ip_addr_check)
    i.ip_frag                                0x08003c88   Section        0  ip_frag.o(i.ip_frag)
    i.ip_frag_alloc_pbuf_custom_ref          0x08003ed4   Section        0  ip_frag.o(i.ip_frag_alloc_pbuf_custom_ref)
    ip_frag_alloc_pbuf_custom_ref            0x08003ed5   Thumb Code    12  ip_frag.o(i.ip_frag_alloc_pbuf_custom_ref)
    i.ip_frag_free_pbuf_custom_ref           0x08003ee4   Section        0  ip_frag.o(i.ip_frag_free_pbuf_custom_ref)
    ip_frag_free_pbuf_custom_ref             0x08003ee5   Thumb Code    44  ip_frag.o(i.ip_frag_free_pbuf_custom_ref)
    i.ip_input                               0x08003f6c   Section        0  ip.o(i.ip_input)
    i.ip_output                              0x08004190   Section        0  ip.o(i.ip_output)
    i.ip_output_hinted                       0x08004254   Section        0  ip.o(i.ip_output_hinted)
    i.ip_output_if                           0x0800432c   Section        0  ip.o(i.ip_output_if)
    i.ip_reass                               0x08004524   Section        0  ip_frag.o(i.ip_reass)
    i.ip_reass_chain_frag_into_datagram_and_validate 0x080046fc   Section        0  ip_frag.o(i.ip_reass_chain_frag_into_datagram_and_validate)
    ip_reass_chain_frag_into_datagram_and_validate 0x080046fd   Thumb Code   552  ip_frag.o(i.ip_reass_chain_frag_into_datagram_and_validate)
    i.ip_reass_dequeue_datagram              0x08004a34   Section        0  ip_frag.o(i.ip_reass_dequeue_datagram)
    ip_reass_dequeue_datagram                0x08004a35   Thumb Code    68  ip_frag.o(i.ip_reass_dequeue_datagram)
    i.ip_reass_enqueue_new_datagram          0x08004ae8   Section        0  ip_frag.o(i.ip_reass_enqueue_new_datagram)
    ip_reass_enqueue_new_datagram            0x08004ae9   Thumb Code    98  ip_frag.o(i.ip_reass_enqueue_new_datagram)
    i.ip_reass_free_complete_datagram        0x08004b58   Section        0  ip_frag.o(i.ip_reass_free_complete_datagram)
    ip_reass_free_complete_datagram          0x08004b59   Thumb Code   218  ip_frag.o(i.ip_reass_free_complete_datagram)
    i.ip_reass_remove_oldest_datagram        0x08004ce4   Section        0  ip_frag.o(i.ip_reass_remove_oldest_datagram)
    ip_reass_remove_oldest_datagram          0x08004ce5   Thumb Code   118  ip_frag.o(i.ip_reass_remove_oldest_datagram)
    i.ip_reass_timer                         0x08004d60   Section        0  timers.o(i.ip_reass_timer)
    ip_reass_timer                           0x08004d61   Thumb Code    26  timers.o(i.ip_reass_timer)
    i.ip_reass_tmr                           0x08004d80   Section        0  ip_frag.o(i.ip_reass_tmr)
    i.ip_route                               0x08004dbc   Section        0  ip.o(i.ip_route)
    i.ipaddr_addr                            0x08004e24   Section        0  ip_addr.o(i.ipaddr_addr)
    i.ipaddr_aton                            0x08004e3c   Section        0  ip_addr.o(i.ipaddr_aton)
    i.ipcp_ackci                             0x08005008   Section        0  ipcp.o(i.ipcp_ackci)
    ipcp_ackci                               0x08005009   Thumb Code   498  ipcp.o(i.ipcp_ackci)
    i.ipcp_addci                             0x08005200   Section        0  ipcp.o(i.ipcp_addci)
    ipcp_addci                               0x08005201   Thumb Code   392  ipcp.o(i.ipcp_addci)
    i.ipcp_cilen                             0x0800538c   Section        0  ipcp.o(i.ipcp_cilen)
    ipcp_cilen                               0x0800538d   Thumb Code   246  ipcp.o(i.ipcp_cilen)
    i.ipcp_clear_addrs                       0x08005494   Section        0  ipcp.o(i.ipcp_clear_addrs)
    ipcp_clear_addrs                         0x08005495   Thumb Code    58  ipcp.o(i.ipcp_clear_addrs)
    i.ipcp_close                             0x080054dc   Section        0  ipcp.o(i.ipcp_close)
    ipcp_close                               0x080054dd   Thumb Code    24  ipcp.o(i.ipcp_close)
    i.ipcp_down                              0x080054f8   Section        0  ipcp.o(i.ipcp_down)
    ipcp_down                                0x080054f9   Thumb Code    38  ipcp.o(i.ipcp_down)
    i.ipcp_finished                          0x0800551e   Section        0  ipcp.o(i.ipcp_finished)
    ipcp_finished                            0x0800551f   Thumb Code    14  ipcp.o(i.ipcp_finished)
    i.ipcp_init                              0x0800552c   Section        0  ipcp.o(i.ipcp_init)
    ipcp_init                                0x0800552d   Thumb Code   154  ipcp.o(i.ipcp_init)
    i.ipcp_input                             0x080055d8   Section        0  ipcp.o(i.ipcp_input)
    ipcp_input                               0x080055d9   Thumb Code    28  ipcp.o(i.ipcp_input)
    i.ipcp_lowerdown                         0x080055f8   Section        0  ipcp.o(i.ipcp_lowerdown)
    ipcp_lowerdown                           0x080055f9   Thumb Code    20  ipcp.o(i.ipcp_lowerdown)
    i.ipcp_lowerup                           0x08005610   Section        0  ipcp.o(i.ipcp_lowerup)
    ipcp_lowerup                             0x08005611   Thumb Code    20  ipcp.o(i.ipcp_lowerup)
    i.ipcp_nakci                             0x08005628   Section        0  ipcp.o(i.ipcp_nakci)
    ipcp_nakci                               0x08005629   Thumb Code   996  ipcp.o(i.ipcp_nakci)
    i.ipcp_open                              0x08005a10   Section        0  ipcp.o(i.ipcp_open)
    ipcp_open                                0x08005a11   Thumb Code    20  ipcp.o(i.ipcp_open)
    i.ipcp_protrej                           0x08005a28   Section        0  ipcp.o(i.ipcp_protrej)
    ipcp_protrej                             0x08005a29   Thumb Code    20  ipcp.o(i.ipcp_protrej)
    i.ipcp_rejci                             0x08005a40   Section        0  ipcp.o(i.ipcp_rejci)
    ipcp_rejci                               0x08005a41   Thumb Code   532  ipcp.o(i.ipcp_rejci)
    i.ipcp_reqci                             0x08005c58   Section        0  ipcp.o(i.ipcp_reqci)
    ipcp_reqci                               0x08005c59   Thumb Code  1066  ipcp.o(i.ipcp_reqci)
    i.ipcp_resetci                           0x08006084   Section        0  ipcp.o(i.ipcp_resetci)
    ipcp_resetci                             0x08006085   Thumb Code   136  ipcp.o(i.ipcp_resetci)
    i.ipcp_up                                0x08006120   Section        0  ipcp.o(i.ipcp_up)
    ipcp_up                                  0x08006121   Thumb Code   214  ipcp.o(i.ipcp_up)
    i.ipfrag_free_pbuf_custom                0x08006270   Section        0  ip_frag.o(i.ipfrag_free_pbuf_custom)
    ipfrag_free_pbuf_custom                  0x08006271   Thumb Code    90  ip_frag.o(i.ipfrag_free_pbuf_custom)
    i.lcp_ackci                              0x08006334   Section        0  lcp.o(i.lcp_ackci)
    lcp_ackci                                0x08006335   Thumb Code   610  lcp.o(i.lcp_ackci)
    i.lcp_addci                              0x0800659c   Section        0  lcp.o(i.lcp_addci)
    lcp_addci                                0x0800659d   Thumb Code   376  lcp.o(i.lcp_addci)
    i.lcp_cilen                              0x08006718   Section        0  lcp.o(i.lcp_cilen)
    lcp_cilen                                0x08006719   Thumb Code   180  lcp.o(i.lcp_cilen)
    i.lcp_close                              0x080067d0   Section        0  lcp.o(i.lcp_close)
    i.lcp_down                               0x08006818   Section        0  lcp.o(i.lcp_down)
    lcp_down                                 0x08006819   Thumb Code   100  lcp.o(i.lcp_down)
    i.lcp_echo_lowerdown                     0x08006884   Section        0  lcp.o(i.lcp_echo_lowerdown)
    lcp_echo_lowerdown                       0x08006885   Thumb Code    36  lcp.o(i.lcp_echo_lowerdown)
    i.lcp_echo_lowerup                       0x080068b4   Section        0  lcp.o(i.lcp_echo_lowerup)
    lcp_echo_lowerup                         0x080068b5   Thumb Code    42  lcp.o(i.lcp_echo_lowerup)
    i.lcp_extcode                            0x080068f4   Section        0  lcp.o(i.lcp_extcode)
    lcp_extcode                              0x080068f5   Thumb Code   178  lcp.o(i.lcp_extcode)
    i.lcp_finished                           0x080069ac   Section        0  lcp.o(i.lcp_finished)
    lcp_finished                             0x080069ad   Thumb Code    12  lcp.o(i.lcp_finished)
    i.lcp_init                               0x080069b8   Section        0  lcp.o(i.lcp_init)
    i.lcp_input                              0x08006b38   Section        0  lcp.o(i.lcp_input)
    lcp_input                                0x08006b39   Thumb Code    34  lcp.o(i.lcp_input)
    i.lcp_lowerdown                          0x08006b60   Section        0  lcp.o(i.lcp_lowerdown)
    i.lcp_lowerup                            0x08006b78   Section        0  lcp.o(i.lcp_lowerup)
    i.lcp_nakci                              0x08006c24   Section        0  lcp.o(i.lcp_nakci)
    lcp_nakci                                0x08006c25   Thumb Code  1178  lcp.o(i.lcp_nakci)
    i.lcp_open                               0x080070d8   Section        0  lcp.o(i.lcp_open)
    i.lcp_protrej                            0x08007130   Section        0  lcp.o(i.lcp_protrej)
    lcp_protrej                              0x08007131   Thumb Code    20  lcp.o(i.lcp_protrej)
    i.lcp_received_echo_reply                0x08007148   Section        0  lcp.o(i.lcp_received_echo_reply)
    lcp_received_echo_reply                  0x08007149   Thumb Code    84  lcp.o(i.lcp_received_echo_reply)
    i.lcp_rejci                              0x080071a4   Section        0  lcp.o(i.lcp_rejci)
    lcp_rejci                                0x080071a5   Thumb Code   664  lcp.o(i.lcp_rejci)
    i.lcp_reqci                              0x08007440   Section        0  lcp.o(i.lcp_reqci)
    lcp_reqci                                0x08007441   Thumb Code  1356  lcp.o(i.lcp_reqci)
    i.lcp_resetci                            0x08007990   Section        0  lcp.o(i.lcp_resetci)
    lcp_resetci                              0x08007991   Thumb Code    86  lcp.o(i.lcp_resetci)
    i.lcp_rprotrej                           0x080079f4   Section        0  lcp.o(i.lcp_rprotrej)
    lcp_rprotrej                             0x080079f5   Thumb Code    88  lcp.o(i.lcp_rprotrej)
    i.lcp_sprotrej                           0x08007a50   Section        0  lcp.o(i.lcp_sprotrej)
    i.lcp_starting                           0x08007a90   Section        0  lcp.o(i.lcp_starting)
    lcp_starting                             0x08007a91   Thumb Code    12  lcp.o(i.lcp_starting)
    i.lcp_up                                 0x08007a9c   Section        0  lcp.o(i.lcp_up)
    lcp_up                                   0x08007a9d   Thumb Code   316  lcp.o(i.lcp_up)
    i.linkStatusCB                           0x08007bec   Section        0  main.o(i.linkStatusCB)
    linkStatusCB                             0x08007bed   Thumb Code    22  main.o(i.linkStatusCB)
    i.link_down                              0x08007c08   Section        0  auth.o(i.link_down)
    i.link_established                       0x08007c98   Section        0  auth.o(i.link_established)
    i.link_required                          0x08007e00   Section        0  auth.o(i.link_required)
    i.link_terminated                        0x08007e04   Section        0  auth.o(i.link_terminated)
    i.lwip_htonl                             0x08007e34   Section        0  def.o(i.lwip_htonl)
    i.lwip_htons                             0x08007e4e   Section        0  def.o(i.lwip_htons)
    i.lwip_init                              0x08007e5a   Section        0  init.o(i.lwip_init)
    i.lwip_ntohl                             0x08007e7a   Section        0  def.o(i.lwip_ntohl)
    i.lwip_ntohs                             0x08007e86   Section        0  def.o(i.lwip_ntohs)
    i.lwip_standard_chksum                   0x08007e92   Section        0  inet_chksum.o(i.lwip_standard_chksum)
    lwip_standard_chksum                     0x08007e93   Thumb Code    94  inet_chksum.o(i.lwip_standard_chksum)
    i.magic                                  0x08007ef0   Section        0  magic.o(i.magic)
    i.magicInit                              0x08007ef8   Section        0  magic.o(i.magicInit)
    i.main                                   0x08007efc   Section        0  main.o(i.main)
    i.mem_free                               0x08008060   Section        0  mem.o(i.mem_free)
    i.mem_init                               0x080081bc   Section        0  mem.o(i.mem_init)
    i.mem_malloc                             0x08008218   Section        0  mem.o(i.mem_malloc)
    i.mem_trim                               0x080084a0   Section        0  mem.o(i.mem_trim)
    i.nPut                                   0x08008674   Section        0  ppp.o(i.nPut)
    nPut                                     0x08008675   Thumb Code    60  ppp.o(i.nPut)
    i.netif_add                              0x080086b0   Section        0  netif.o(i.netif_add)
    i.netif_init                             0x080087bc   Section        0  netif.o(i.netif_init)
    i.netif_remove                           0x080087c0   Section        0  netif.o(i.netif_remove)
    i.netif_set_addr                         0x08008828   Section        0  netif.o(i.netif_set_addr)
    i.netif_set_default                      0x08008850   Section        0  netif.o(i.netif_set_default)
    i.netif_set_down                         0x08008860   Section        0  netif.o(i.netif_set_down)
    i.netif_set_gw                           0x0800888a   Section        0  netif.o(i.netif_set_gw)
    i.netif_set_ipaddr                       0x0800889c   Section        0  netif.o(i.netif_set_ipaddr)
    i.netif_set_netmask                      0x08008920   Section        0  netif.o(i.netif_set_netmask)
    i.netif_set_up                           0x08008930   Section        0  netif.o(i.netif_set_up)
    i.network_phase                          0x0800895c   Section        0  auth.o(i.network_phase)
    network_phase                            0x0800895d   Thumb Code   126  auth.o(i.network_phase)
    i.np_down                                0x08008a10   Section        0  auth.o(i.np_down)
    i.np_finished                            0x08008a40   Section        0  auth.o(i.np_finished)
    i.np_up                                  0x08008a84   Section        0  auth.o(i.np_up)
    i.null_login                             0x08008afc   Section        0  auth.o(i.null_login)
    null_login                               0x08008afd   Thumb Code     6  auth.o(i.null_login)
    i.pbuf_alloc                             0x08008b04   Section        0  pbuf.o(i.pbuf_alloc)
    i.pbuf_alloced_custom                    0x08008f68   Section        0  pbuf.o(i.pbuf_alloced_custom)
    i.pbuf_cat                               0x0800906c   Section        0  pbuf.o(i.pbuf_cat)
    i.pbuf_chain                             0x080091c0   Section        0  pbuf.o(i.pbuf_chain)
    i.pbuf_clen                              0x080091da   Section        0  pbuf.o(i.pbuf_clen)
    i.pbuf_copy_partial                      0x080091ec   Section        0  pbuf.o(i.pbuf_copy_partial)
    i.pbuf_free                              0x08009338   Section        0  pbuf.o(i.pbuf_free)
    i.pbuf_header                            0x08009504   Section        0  pbuf.o(i.pbuf_header)
    i.pbuf_realloc                           0x08009660   Section        0  pbuf.o(i.pbuf_realloc)
    i.pbuf_ref                               0x08009848   Section        0  pbuf.o(i.pbuf_ref)
    i.plogout                                0x08009854   Section        0  auth.o(i.plogout)
    plogout                                  0x08009855   Thumb Code     8  auth.o(i.plogout)
    i.plug_holes                             0x08009860   Section        0  mem.o(i.plug_holes)
    plug_holes                               0x08009861   Thumb Code   252  mem.o(i.plug_holes)
    i.pppAppend                              0x08009a2c   Section        0  ppp.o(i.pppAppend)
    pppAppend                                0x08009a2d   Thumb Code   110  ppp.o(i.pppAppend)
    i.pppDrop                                0x08009aa0   Section        0  ppp.o(i.pppDrop)
    pppDrop                                  0x08009aa1   Thumb Code    12  ppp.o(i.pppDrop)
    i.pppFreeCurrentInputPacket              0x08009aac   Section        0  ppp.o(i.pppFreeCurrentInputPacket)
    pppFreeCurrentInputPacket                0x08009aad   Thumb Code    42  ppp.o(i.pppFreeCurrentInputPacket)
    i.pppIOCtl                               0x08009ad8   Section        0  ppp.o(i.pppIOCtl)
    i.pppInProc                              0x08009b54   Section        0  ppp.o(i.pppInProc)
    pppInProc                                0x08009b55   Thumb Code   478  ppp.o(i.pppInProc)
    i.pppInit                                0x08009d3c   Section        0  ppp.o(i.pppInit)
    i.pppInput                               0x08009db4   Section        0  ppp.o(i.pppInput)
    pppInput                                 0x08009db5   Thumb Code   346  ppp.o(i.pppInput)
    i.pppLinkDown                            0x08009f7c   Section        0  ppp.o(i.pppLinkDown)
    i.pppLinkTerminated                      0x08009f80   Section        0  ppp.o(i.pppLinkTerminated)
    i.pppMTU                                 0x08009fbc   Section        0  ppp.o(i.pppMTU)
    i.pppOverSerialOpen                      0x08009fec   Section        0  ppp.o(i.pppOverSerialOpen)
    i.pppSetAuth                             0x0800a074   Section        0  ppp.o(i.pppSetAuth)
    i.pppSingleBuf                           0x0800a140   Section        0  ppp.o(i.pppSingleBuf)
    i.pppStart                               0x0800a18a   Section        0  ppp.o(i.pppStart)
    pppStart                                 0x0800a18b   Thumb Code    18  ppp.o(i.pppStart)
    i.pppWrite                               0x0800a19c   Section        0  ppp.o(i.pppWrite)
    i.ppp_recv_config                        0x0800a278   Section        0  ppp.o(i.ppp_recv_config)
    i.ppp_send_config                        0x0800a2b4   Section        0  ppp.o(i.ppp_send_config)
    i.ppp_set_xaccm                          0x0800a2f8   Section        0  ppp.o(i.ppp_set_xaccm)
    i.pppifNetifInit                         0x0800a320   Section        0  ppp.o(i.pppifNetifInit)
    pppifNetifInit                           0x0800a321   Thumb Code    38  ppp.o(i.pppifNetifInit)
    i.pppifOutput                            0x0800a34c   Section        0  ppp.o(i.pppifOutput)
    pppifOutput                              0x0800a34d   Thumb Code   434  ppp.o(i.pppifOutput)
    i.pppos_input                            0x0800a50c   Section        0  ppp.o(i.pppos_input)
    i.raw_input                              0x0800a53c   Section        0  raw.o(i.raw_input)
    i.sifaddr                                0x0800a5b0   Section        0  ppp.o(i.sifaddr)
    i.sifdefaultroute                        0x0800a600   Section        0  ppp.o(i.sifdefaultroute)
    i.sifdown                                0x0800a640   Section        0  ppp.o(i.sifdown)
    i.sifnpmode                              0x0800a694   Section        0  ppp.o(i.sifnpmode)
    i.sifup                                  0x0800a69c   Section        0  ppp.o(i.sifup)
    i.sifvjcomp                              0x0800a71c   Section        0  ppp.o(i.sifvjcomp)
    i.sio_write                              0x0800a724   Section        0  sio.o(i.sio_write)
    i.stats_init                             0x0800a7a0   Section        0  stats.o(i.stats_init)
    i.sys_jiffies                            0x0800a7a4   Section        0  sys_arch.o(i.sys_jiffies)
    i.sys_now                                0x0800a7b0   Section        0  sys_arch.o(i.sys_now)
    i.sys_timeout                            0x0800a7bc   Section        0  timers.o(i.sys_timeout)
    i.sys_timeouts_init                      0x0800a908   Section        0  timers.o(i.sys_timeouts_init)
    i.sys_untimeout                          0x0800a938   Section        0  timers.o(i.sys_untimeout)
    i.tcp_abandon                            0x0800a994   Section        0  tcp.o(i.tcp_abandon)
    i.tcp_abort                              0x0800aac4   Section        0  tcp.o(i.tcp_abort)
    i.tcp_alloc                              0x0800aad4   Section        0  tcp.o(i.tcp_alloc)
    i.tcp_bind                               0x0800abac   Section        0  tcp.o(i.tcp_bind)
    i.tcp_close                              0x0800accc   Section        0  tcp.o(i.tcp_close)
    i.tcp_close_shutdown                     0x0800ace8   Section        0  tcp.o(i.tcp_close_shutdown)
    tcp_close_shutdown                       0x0800ace9   Thumb Code   456  tcp.o(i.tcp_close_shutdown)
    i.tcp_connect                            0x0800af2c   Section        0  tcp.o(i.tcp_connect)
    i.tcp_create_segment                     0x0800b114   Section        0  tcp_out.o(i.tcp_create_segment)
    tcp_create_segment                       0x0800b115   Thumb Code   202  tcp_out.o(i.tcp_create_segment)
    i.tcp_eff_send_mss                       0x0800b1e8   Section        0  tcp.o(i.tcp_eff_send_mss)
    i.tcp_enqueue_flags                      0x0800b218   Section        0  tcp_out.o(i.tcp_enqueue_flags)
    i.tcp_fasttmr                            0x0800b520   Section        0  tcp.o(i.tcp_fasttmr)
    i.tcp_init                               0x0800b5a0   Section        0  tcp.o(i.tcp_init)
    i.tcp_input                              0x0800b5a4   Section        0  tcp_in.o(i.tcp_input)
    i.tcp_keepalive                          0x0800bd38   Section        0  tcp_out.o(i.tcp_keepalive)
    i.tcp_kill_prio                          0x0800bdb4   Section        0  tcp.o(i.tcp_kill_prio)
    tcp_kill_prio                            0x0800bdb5   Thumb Code    80  tcp.o(i.tcp_kill_prio)
    i.tcp_kill_timewait                      0x0800be0c   Section        0  tcp.o(i.tcp_kill_timewait)
    tcp_kill_timewait                        0x0800be0d   Thumb Code    54  tcp.o(i.tcp_kill_timewait)
    i.tcp_listen_input                       0x0800be4c   Section        0  tcp_in.o(i.tcp_listen_input)
    tcp_listen_input                         0x0800be4d   Thumb Code   320  tcp_in.o(i.tcp_listen_input)
    i.tcp_new                                0x0800bfb4   Section        0  tcp.o(i.tcp_new)
    i.tcp_new_port                           0x0800bfc0   Section        0  tcp.o(i.tcp_new_port)
    tcp_new_port                             0x0800bfc1   Thumb Code    96  tcp.o(i.tcp_new_port)
    i.tcp_next_iss                           0x0800c028   Section        0  tcp.o(i.tcp_next_iss)
    i.tcp_output                             0x0800c044   Section        0  tcp_out.o(i.tcp_output)
    i.tcp_output_alloc_header                0x0800c2d0   Section        0  tcp_out.o(i.tcp_output_alloc_header)
    tcp_output_alloc_header                  0x0800c2d1   Thumb Code   156  tcp_out.o(i.tcp_output_alloc_header)
    i.tcp_output_segment                     0x0800c3e8   Section        0  tcp_out.o(i.tcp_output_segment)
    tcp_output_segment                       0x0800c3e9   Thumb Code   252  tcp_out.o(i.tcp_output_segment)
    i.tcp_parseopt                           0x0800c4ec   Section        0  tcp_in.o(i.tcp_parseopt)
    tcp_parseopt                             0x0800c4ed   Thumb Code   202  tcp_in.o(i.tcp_parseopt)
    i.tcp_pbuf_prealloc                      0x0800c5bc   Section        0  tcp_out.o(i.tcp_pbuf_prealloc)
    tcp_pbuf_prealloc                        0x0800c5bd   Thumb Code   150  tcp_out.o(i.tcp_pbuf_prealloc)
    i.tcp_pcb_purge                          0x0800c6b4   Section        0  tcp.o(i.tcp_pcb_purge)
    i.tcp_pcb_remove                         0x0800c814   Section        0  tcp.o(i.tcp_pcb_remove)
    i.tcp_process                            0x0800c95c   Section        0  tcp_in.o(i.tcp_process)
    tcp_process                              0x0800c95d   Thumb Code  1674  tcp_in.o(i.tcp_process)
    i.tcp_process_refused_data               0x0800d004   Section        0  tcp.o(i.tcp_process_refused_data)
    i.tcp_receive                            0x0800d098   Section        0  tcp_in.o(i.tcp_receive)
    tcp_receive                              0x0800d099   Thumb Code  2436  tcp_in.o(i.tcp_receive)
    i.tcp_recv_null                          0x0800da1c   Section        0  tcp.o(i.tcp_recv_null)
    i.tcp_recved                             0x0800da4c   Section        0  tcp.o(i.tcp_recved)
    i.tcp_rexmit                             0x0800db70   Section        0  tcp_out.o(i.tcp_rexmit)
    i.tcp_rexmit_fast                        0x0800dbca   Section        0  tcp_out.o(i.tcp_rexmit_fast)
    i.tcp_rexmit_rto                         0x0800dc42   Section        0  tcp_out.o(i.tcp_rexmit_rto)
    i.tcp_rst                                0x0800dc7c   Section        0  tcp_out.o(i.tcp_rst)
    i.tcp_seg_free                           0x0800ddc0   Section        0  tcp.o(i.tcp_seg_free)
    i.tcp_segs_free                          0x0800ddd8   Section        0  tcp.o(i.tcp_segs_free)
    i.tcp_send_empty_ack                     0x0800ddf0   Section        0  tcp_out.o(i.tcp_send_empty_ack)
    i.tcp_send_fin                           0x0800de5e   Section        0  tcp_out.o(i.tcp_send_fin)
    i.tcp_slowtmr                            0x0800dea8   Section        0  tcp.o(i.tcp_slowtmr)
    i.tcp_timer_needed                       0x0800e4cc   Section        0  timers.o(i.tcp_timer_needed)
    i.tcp_timewait_input                     0x0800e504   Section        0  tcp_in.o(i.tcp_timewait_input)
    tcp_timewait_input                       0x0800e505   Thumb Code   140  tcp_in.o(i.tcp_timewait_input)
    i.tcp_tmr                                0x0800e5b0   Section        0  tcp.o(i.tcp_tmr)
    i.tcp_update_rcv_ann_wnd                 0x0800e5d4   Section        0  tcp.o(i.tcp_update_rcv_ann_wnd)
    i.tcp_write                              0x0800e6a8   Section        0  tcp_out.o(i.tcp_write)
    i.tcp_write_checks                       0x0800ee30   Section        0  tcp_out.o(i.tcp_write_checks)
    tcp_write_checks                         0x0800ee31   Thumb Code   222  tcp_out.o(i.tcp_write_checks)
    i.tcp_zero_window_probe                  0x0800efd0   Section        0  tcp_out.o(i.tcp_zero_window_probe)
    i.tcpip_tcp_timer                        0x0800f0b0   Section        0  timers.o(i.tcpip_tcp_timer)
    tcpip_tcp_timer                          0x0800f0b1   Thumb Code    40  timers.o(i.tcpip_tcp_timer)
    i.udp_bind                               0x0800f0e8   Section        0  udp.o(i.udp_bind)
    i.udp_connect                            0x0800f1f4   Section        0  udp.o(i.udp_connect)
    i.udp_init                               0x0800f25c   Section        0  udp.o(i.udp_init)
    i.udp_input                              0x0800f260   Section        0  udp.o(i.udp_input)
    i.udp_new                                0x0800f4e8   Section        0  udp.o(i.udp_new)
    i.udp_new_port                           0x0800f50c   Section        0  udp.o(i.udp_new_port)
    udp_new_port                             0x0800f50d   Thumb Code    80  udp.o(i.udp_new_port)
    i.udp_recv                               0x0800f564   Section        0  udp.o(i.udp_recv)
    i.udp_sendto                             0x0800f56c   Section        0  udp.o(i.udp_sendto)
    i.udp_sendto_if                          0x0800f5b8   Section        0  udp.o(i.udp_sendto_if)
    i.upap_authpeer                          0x0800f788   Section        0  pap.o(i.upap_authpeer)
    i.upap_authwithpeer                      0x0800f7dc   Section        0  pap.o(i.upap_authwithpeer)
    i.upap_init                              0x0800f828   Section        0  pap.o(i.upap_init)
    upap_init                                0x0800f829   Thumb Code    44  pap.o(i.upap_init)
    i.upap_input                             0x0800f858   Section        0  pap.o(i.upap_input)
    upap_input                               0x0800f859   Thumb Code   134  pap.o(i.upap_input)
    i.upap_lowerdown                         0x0800f8e4   Section        0  pap.o(i.upap_lowerdown)
    upap_lowerdown                           0x0800f8e5   Thumb Code    56  pap.o(i.upap_lowerdown)
    i.upap_lowerup                           0x0800f928   Section        0  pap.o(i.upap_lowerup)
    upap_lowerup                             0x0800f929   Thumb Code    94  pap.o(i.upap_lowerup)
    i.upap_protrej                           0x0800f990   Section        0  pap.o(i.upap_protrej)
    upap_protrej                             0x0800f991   Thumb Code    54  pap.o(i.upap_protrej)
    i.upap_rauthack                          0x0800f9cc   Section        0  pap.o(i.upap_rauthack)
    upap_rauthack                            0x0800f9cd   Thumb Code    70  pap.o(i.upap_rauthack)
    i.upap_rauthnak                          0x0800fa18   Section        0  pap.o(i.upap_rauthnak)
    upap_rauthnak                            0x0800fa19   Thumb Code    60  pap.o(i.upap_rauthnak)
    i.upap_rauthreq                          0x0800fa54   Section        0  pap.o(i.upap_rauthreq)
    upap_rauthreq                            0x0800fa55   Thumb Code   214  pap.o(i.upap_rauthreq)
    i.upap_reqtimeout                        0x0800fb34   Section        0  pap.o(i.upap_reqtimeout)
    upap_reqtimeout                          0x0800fb35   Thumb Code    32  pap.o(i.upap_reqtimeout)
    i.upap_sauthreq                          0x0800fb54   Section        0  pap.o(i.upap_sauthreq)
    upap_sauthreq                            0x0800fb55   Thumb Code   182  pap.o(i.upap_sauthreq)
    i.upap_sresp                             0x0800fc14   Section        0  pap.o(i.upap_sresp)
    upap_sresp                               0x0800fc15   Thumb Code   116  pap.o(i.upap_sresp)
    i.upap_timeout                           0x0800fc8c   Section        0  pap.o(i.upap_timeout)
    upap_timeout                             0x0800fc8d   Thumb Code    48  pap.o(i.upap_timeout)
    i.usart1_init                            0x0800fcbc   Section        0  usart1.o(i.usart1_init)
    i.usart2_init                            0x0800fd64   Section        0  usart2.o(i.usart2_init)
    .constdata                               0x0800fe04   Section       31  main.o(.constdata)
    TCP_TestData                             0x0800fe04   Data          31  main.o(.constdata)
    .constdata                               0x0800fe24   Section      512  ppp.o(.constdata)
    fcstab                                   0x0800fe24   Data         512  ppp.o(.constdata)
    .constdata                               0x08010024   Section       20  memp.o(.constdata)
    .constdata                               0x08010038   Section       80  tcp.o(.constdata)
    .constdata                               0x08010088   Section        8  ip_addr.o(.constdata)
    .conststring                             0x08010090   Section        5  chap.o(.conststring)
    .conststring                             0x08010098   Section        5  ipcp.o(.conststring)
    .conststring                             0x080100a0   Section        4  lcp.o(.conststring)
    .conststring                             0x080100a4   Section        4  pap.o(.conststring)
    .conststring                             0x080100a8   Section      185  tcp.o(.conststring)
    .conststring                             0x08010164   Section       85  tcp_out.o(.conststring)
    .data                                    0x20000000   Section      156  main.o(.data)
    .data                                    0x2000009c   Section       16  timer.o(.data)
    .data                                    0x200000ac   Section       16  usart1.o(.data)
    .data                                    0x200000bc   Section       12  usart2.o(.data)
    .data                                    0x200000c8   Section        1  key.o(.data)
    key_up                                   0x200000c8   Data           1  key.o(.data)
    .data                                    0x200000ca   Section        4  delay.o(.data)
    fac_us                                   0x200000ca   Data           1  delay.o(.data)
    fac_ms                                   0x200000cc   Data           2  delay.o(.data)
    .data                                    0x200000d0   Section       28  auth.o(.data)
    auth_pending                             0x200000d0   Data           4  auth.o(.data)
    logged_in                                0x200000d4   Data           4  auth.o(.data)
    did_authup                               0x200000d8   Data           4  auth.o(.data)
    addresses                                0x200000dc   Data           4  auth.o(.data)
    num_np_open                              0x200000e0   Data           4  auth.o(.data)
    num_np_up                                0x200000e4   Data           4  auth.o(.data)
    passwd_from_file                         0x200000e8   Data           4  auth.o(.data)
    .data                                    0x200000ec   Section       40  chap.o(.data)
    .data                                    0x20000114   Section        4  fsm.o(.data)
    .data                                    0x20000118   Section      108  ipcp.o(.data)
    default_route_set                        0x20000118   Data           4  ipcp.o(.data)
    cis_received                             0x2000011c   Data           4  ipcp.o(.data)
    ipcp_callbacks                           0x20000120   Data          60  ipcp.o(.data)
    .data                                    0x20000184   Section      128  lcp.o(.data)
    lcp_echo_interval                        0x20000188   Data           4  lcp.o(.data)
    lcp_echo_fails                           0x2000018c   Data           4  lcp.o(.data)
    lcp_echos_pending                        0x20000190   Data           4  lcp.o(.data)
    lcp_echo_number                          0x20000194   Data           4  lcp.o(.data)
    lcp_echo_timer_running                   0x20000198   Data           4  lcp.o(.data)
    lcp_callbacks                            0x2000019c   Data          60  lcp.o(.data)
    .data                                    0x20000204   Section       64  md5.o(.data)
    PADDING                                  0x20000204   Data          64  md5.o(.data)
    .data                                    0x20000244   Section       40  pap.o(.data)
    .data                                    0x2000026c   Section       32  ppp.o(.data)
    pppACCMMask                              0x20000284   Data           8  ppp.o(.data)
    .data                                    0x2000028c   Section       12  randm.o(.data)
    avRandomized                             0x2000028c   Data           4  randm.o(.data)
    avRandomSeed                             0x20000290   Data           4  randm.o(.data)
    last_jiffies                             0x20000294   Data           4  randm.o(.data)
    .data                                    0x20000298   Section       20  dns.o(.data)
    dns_pcb                                  0x20000298   Data           4  dns.o(.data)
    dns_seqno                                0x2000029c   Data           1  dns.o(.data)
    dns_servers                              0x200002a0   Data           8  dns.o(.data)
    dns_payload                              0x200002a8   Data           4  dns.o(.data)
    .data                                    0x200002ac   Section       12  mem.o(.data)
    ram                                      0x200002ac   Data           4  mem.o(.data)
    ram_end                                  0x200002b0   Data           4  mem.o(.data)
    lfree                                    0x200002b4   Data           4  mem.o(.data)
    .data                                    0x200002b8   Section        9  netif.o(.data)
    netif_num                                0x200002c0   Data           1  netif.o(.data)
    .data                                    0x200002c4   Section        4  raw.o(.data)
    raw_pcbs                                 0x200002c4   Data           4  raw.o(.data)
    .data                                    0x200002c8   Section       36  tcp.o(.data)
    tcp_port                                 0x200002c8   Data           2  tcp.o(.data)
    tcp_timer                                0x200002e5   Data           1  tcp.o(.data)
    tcp_timer_ctr                            0x200002e6   Data           1  tcp.o(.data)
    iss                                      0x200002e8   Data           4  tcp.o(.data)
    .data                                    0x200002ec   Section       32  tcp_in.o(.data)
    tcphdr                                   0x200002ec   Data           4  tcp_in.o(.data)
    iphdr                                    0x200002f0   Data           4  tcp_in.o(.data)
    seqno                                    0x200002f4   Data           4  tcp_in.o(.data)
    ackno                                    0x200002f8   Data           4  tcp_in.o(.data)
    flags                                    0x200002fc   Data           1  tcp_in.o(.data)
    tcplen                                   0x200002fe   Data           2  tcp_in.o(.data)
    recv_flags                               0x20000300   Data           1  tcp_in.o(.data)
    recv_data                                0x20000304   Data           4  tcp_in.o(.data)
    .data                                    0x2000030c   Section       12  timers.o(.data)
    next_timeout                             0x2000030c   Data           4  timers.o(.data)
    timeouts_last_time                       0x20000310   Data           4  timers.o(.data)
    tcpip_tcp_timer_active                   0x20000314   Data           4  timers.o(.data)
    .data                                    0x20000318   Section        8  udp.o(.data)
    udp_port                                 0x20000318   Data           2  udp.o(.data)
    .data                                    0x20000320   Section       18  ip.o(.data)
    ip_id                                    0x20000330   Data           2  ip.o(.data)
    .data                                    0x20000334   Section        6  ip_frag.o(.data)
    reassdatagrams                           0x20000334   Data           4  ip_frag.o(.data)
    ip_reass_pbufcount                       0x20000338   Data           2  ip_frag.o(.data)
    .data                                    0x2000033a   Section       20  stm32f10x_rcc.o(.data)
    APBAHBPrescTable                         0x2000033a   Data          16  stm32f10x_rcc.o(.data)
    ADCPrescTable                            0x2000034a   Data           4  stm32f10x_rcc.o(.data)
    .data                                    0x20000350   Section        4  rand.o(.data)
    _rand_state                              0x20000350   Data           4  rand.o(.data)
    .bss                                     0x20000358   Section     3200  usart2.o(.bss)
    .bss                                     0x20000fd8   Section      256  auth.o(.bss)
    peer_authname                            0x20000fd8   Data         256  auth.o(.bss)
    .bss                                     0x200010d8   Section      176  chap.o(.bss)
    .bss                                     0x20001188   Section      184  ipcp.o(.bss)
    .bss                                     0x20001240   Section     1684  lcp.o(.bss)
    lcp_fsm                                  0x20001240   Data          56  lcp.o(.bss)
    nak_buffer                               0x200012f8   Data        1500  lcp.o(.bss)
    .bss                                     0x200018d4   Section       48  pap.o(.bss)
    .bss                                     0x20001904   Section     2748  ppp.o(.bss)
    pppControl                               0x20001904   Data         208  ppp.o(.bss)
    .bss                                     0x200023c0   Section     1635  dns.o(.bss)
    dns_table                                0x200023c0   Data        1120  dns.o(.bss)
    dns_payload_buffer                       0x20002820   Data         515  dns.o(.bss)
    .bss                                     0x20002a23   Section    10260  mem.o(.bss)
    .bss                                     0x20005238   Section      120  stats.o(.bss)
    .bss                                     0x200052b0   Section       20  tcp_in.o(.bss)
    inseg                                    0x200052b0   Data          20  tcp_in.o(.bss)
    STACK                                    0x200052c8   Section     1024  startup_stm32f10x_hd.o(STACK)

    Global Symbols

    Symbol Name                              Value     Ov Type        Size  Object(Section)

    BuildAttributes$$THM_ISAv4$P$D$K$B$S$PE$A:L22UL41UL21$X:L11$S22US41US21$IEEE1$IW$USESV6$~STKCKD$USESV7$~SHL$OSPACE$ROPI$EBA8$MICROLIB$REQ8$PRES8$EABIv2 0x00000000   Number         0  anon$$obj.o ABSOLUTE
    __ARM_use_no_argv                        0x00000000   Number         0  main.o ABSOLUTE
    __use_no_errno                           0x00000000   Number         0  useno.o ABSOLUTE
    __use_no_exception_handling              0x00000000   Number         0  useno.o ABSOLUTE
    __use_no_fp                              0x00000000   Number         0  useno.o ABSOLUTE
    __use_no_heap                            0x00000000   Number         0  useno.o ABSOLUTE
    __use_no_heap_region                     0x00000000   Number         0  useno.o ABSOLUTE
    __use_no_semihosting                     0x00000000   Number         0  useno.o ABSOLUTE
    __use_no_semihosting_swi                 0x00000000   Number         0  useno.o ABSOLUTE
    __use_no_signal_handling                 0x00000000   Number         0  useno.o ABSOLUTE
    _printf_a                                0x00000000   Number         0  stubs.o ABSOLUTE
    _printf_c                                0x00000000   Number         0  stubs.o ABSOLUTE
    _printf_charcount                        0x00000000   Number         0  stubs.o ABSOLUTE
    _printf_d                                0x00000000   Number         0  stubs.o ABSOLUTE
    _printf_e                                0x00000000   Number         0  stubs.o ABSOLUTE
    _printf_f                                0x00000000   Number         0  stubs.o ABSOLUTE
    _printf_flags                            0x00000000   Number         0  stubs.o ABSOLUTE
    _printf_fp_dec                           0x00000000   Number         0  stubs.o ABSOLUTE
    _printf_fp_hex                           0x00000000   Number         0  stubs.o ABSOLUTE
    _printf_g                                0x00000000   Number         0  stubs.o ABSOLUTE
    _printf_i                                0x00000000   Number         0  stubs.o ABSOLUTE
    _printf_int_dec                          0x00000000   Number         0  stubs.o ABSOLUTE
    _printf_l                                0x00000000   Number         0  stubs.o ABSOLUTE
    _printf_lc                               0x00000000   Number         0  stubs.o ABSOLUTE
    _printf_ll                               0x00000000   Number         0  stubs.o ABSOLUTE
    _printf_lld                              0x00000000   Number         0  stubs.o ABSOLUTE
    _printf_lli                              0x00000000   Number         0  stubs.o ABSOLUTE
    _printf_llo                              0x00000000   Number         0  stubs.o ABSOLUTE
    _printf_llu                              0x00000000   Number         0  stubs.o ABSOLUTE
    _printf_llx                              0x00000000   Number         0  stubs.o ABSOLUTE
    _printf_longlong_dec                     0x00000000   Number         0  stubs.o ABSOLUTE
    _printf_longlong_hex                     0x00000000   Number         0  stubs.o ABSOLUTE
    _printf_longlong_oct                     0x00000000   Number         0  stubs.o ABSOLUTE
    _printf_ls                               0x00000000   Number         0  stubs.o ABSOLUTE
    _printf_mbtowc                           0x00000000   Number         0  stubs.o ABSOLUTE
    _printf_n                                0x00000000   Number         0  stubs.o ABSOLUTE
    _printf_o                                0x00000000   Number         0  stubs.o ABSOLUTE
    _printf_p                                0x00000000   Number         0  stubs.o ABSOLUTE
    _printf_percent                          0x00000000   Number         0  stubs.o ABSOLUTE
    _printf_pre_padding                      0x00000000   Number         0  stubs.o ABSOLUTE
    _printf_return_value                     0x00000000   Number         0  stubs.o ABSOLUTE
    _printf_s                                0x00000000   Number         0  stubs.o ABSOLUTE
    _printf_sizespec                         0x00000000   Number         0  stubs.o ABSOLUTE
    _printf_str                              0x00000000   Number         0  stubs.o ABSOLUTE
    _printf_truncate_signed                  0x00000000   Number         0  stubs.o ABSOLUTE
    _printf_truncate_unsigned                0x00000000   Number         0  stubs.o ABSOLUTE
    _printf_u                                0x00000000   Number         0  stubs.o ABSOLUTE
    _printf_wc                               0x00000000   Number         0  stubs.o ABSOLUTE
    _printf_wctomb                           0x00000000   Number         0  stubs.o ABSOLUTE
    _printf_widthprec                        0x00000000   Number         0  stubs.o ABSOLUTE
    _printf_x                                0x00000000   Number         0  stubs.o ABSOLUTE
    __cpp_initialize__aeabi_                  - Undefined Weak Reference
    __cxa_finalize                            - Undefined Weak Reference
    _clock_init                               - Undefined Weak Reference
    _microlib_exit                            - Undefined Weak Reference
    __Vectors_Size                           0x00000130   Number         0  startup_stm32f10x_hd.o ABSOLUTE
    __Vectors                                0x08000000   Data           4  startup_stm32f10x_hd.o(RESET)
    __Vectors_End                            0x08000130   Data           0  startup_stm32f10x_hd.o(RESET)
    __main                                   0x08000131   Thumb Code     0  entry.o(.ARM.Collect$$$$00000000)
    _main_stk                                0x08000131   Thumb Code     0  entry2.o(.ARM.Collect$$$$00000001)
    _main_scatterload                        0x08000135   Thumb Code     0  entry5.o(.ARM.Collect$$$$00000004)
    __main_after_scatterload                 0x08000139   Thumb Code     0  entry5.o(.ARM.Collect$$$$00000004)
    _main_clock                              0x08000139   Thumb Code     0  entry7b.o(.ARM.Collect$$$$00000008)
    _main_cpp_init                           0x08000139   Thumb Code     0  entry8b.o(.ARM.Collect$$$$0000000A)
    _main_init                               0x08000139   Thumb Code     0  entry9a.o(.ARM.Collect$$$$0000000B)
    __rt_final_cpp                           0x08000141   Thumb Code     0  entry10a.o(.ARM.Collect$$$$0000000D)
    __rt_final_exit                          0x08000141   Thumb Code     0  entry11a.o(.ARM.Collect$$$$0000000F)
    Reset_Handler                            0x08000145   Thumb Code     8  startup_stm32f10x_hd.o(.text)
    NMI_Handler                              0x0800014d   Thumb Code     2  startup_stm32f10x_hd.o(.text)
    HardFault_Handler                        0x0800014f   Thumb Code     2  startup_stm32f10x_hd.o(.text)
    MemManage_Handler                        0x08000151   Thumb Code     2  startup_stm32f10x_hd.o(.text)
    BusFault_Handler                         0x08000153   Thumb Code     2  startup_stm32f10x_hd.o(.text)
    UsageFault_Handler                       0x08000155   Thumb Code     2  startup_stm32f10x_hd.o(.text)
    SVC_Handler                              0x08000157   Thumb Code     2  startup_stm32f10x_hd.o(.text)
    DebugMon_Handler                         0x08000159   Thumb Code     2  startup_stm32f10x_hd.o(.text)
    PendSV_Handler                           0x0800015b   Thumb Code     2  startup_stm32f10x_hd.o(.text)
    SysTick_Handler                          0x0800015d   Thumb Code     2  startup_stm32f10x_hd.o(.text)
    ADC1_2_IRQHandler                        0x0800015f   Thumb Code     0  startup_stm32f10x_hd.o(.text)
    ADC3_IRQHandler                          0x0800015f   Thumb Code     0  startup_stm32f10x_hd.o(.text)
    CAN1_RX1_IRQHandler                      0x0800015f   Thumb Code     0  startup_stm32f10x_hd.o(.text)
    CAN1_SCE_IRQHandler                      0x0800015f   Thumb Code     0  startup_stm32f10x_hd.o(.text)
    DMA1_Channel1_IRQHandler                 0x0800015f   Thumb Code     0  startup_stm32f10x_hd.o(.text)
    DMA1_Channel2_IRQHandler                 0x0800015f   Thumb Code     0  startup_stm32f10x_hd.o(.text)
    DMA1_Channel3_IRQHandler                 0x0800015f   Thumb Code     0  startup_stm32f10x_hd.o(.text)
    DMA1_Channel4_IRQHandler                 0x0800015f   Thumb Code     0  startup_stm32f10x_hd.o(.text)
    DMA1_Channel5_IRQHandler                 0x0800015f   Thumb Code     0  startup_stm32f10x_hd.o(.text)
    DMA1_Channel6_IRQHandler                 0x0800015f   Thumb Code     0  startup_stm32f10x_hd.o(.text)
    DMA1_Channel7_IRQHandler                 0x0800015f   Thumb Code     0  startup_stm32f10x_hd.o(.text)
    DMA2_Channel1_IRQHandler                 0x0800015f   Thumb Code     0  startup_stm32f10x_hd.o(.text)
    DMA2_Channel2_IRQHandler                 0x0800015f   Thumb Code     0  startup_stm32f10x_hd.o(.text)
    DMA2_Channel3_IRQHandler                 0x0800015f   Thumb Code     0  startup_stm32f10x_hd.o(.text)
    DMA2_Channel4_5_IRQHandler               0x0800015f   Thumb Code     0  startup_stm32f10x_hd.o(.text)
    EXTI0_IRQHandler                         0x0800015f   Thumb Code     0  startup_stm32f10x_hd.o(.text)
    EXTI15_10_IRQHandler                     0x0800015f   Thumb Code     0  startup_stm32f10x_hd.o(.text)
    EXTI2_IRQHandler                         0x0800015f   Thumb Code     0  startup_stm32f10x_hd.o(.text)
    EXTI9_5_IRQHandler                       0x0800015f   Thumb Code     0  startup_stm32f10x_hd.o(.text)
    FLASH_IRQHandler                         0x0800015f   Thumb Code     0  startup_stm32f10x_hd.o(.text)
    FSMC_IRQHandler                          0x0800015f   Thumb Code     0  startup_stm32f10x_hd.o(.text)
    I2C1_ER_IRQHandler                       0x0800015f   Thumb Code     0  startup_stm32f10x_hd.o(.text)
    I2C1_EV_IRQHandler                       0x0800015f   Thumb Code     0  startup_stm32f10x_hd.o(.text)
    I2C2_ER_IRQHandler                       0x0800015f   Thumb Code     0  startup_stm32f10x_hd.o(.text)
    I2C2_EV_IRQHandler                       0x0800015f   Thumb Code     0  startup_stm32f10x_hd.o(.text)
    PVD_IRQHandler                           0x0800015f   Thumb Code     0  startup_stm32f10x_hd.o(.text)
    RCC_IRQHandler                           0x0800015f   Thumb Code     0  startup_stm32f10x_hd.o(.text)
    RTCAlarm_IRQHandler                      0x0800015f   Thumb Code     0  startup_stm32f10x_hd.o(.text)
    RTC_IRQHandler                           0x0800015f   Thumb Code     0  startup_stm32f10x_hd.o(.text)
    SDIO_IRQHandler                          0x0800015f   Thumb Code     0  startup_stm32f10x_hd.o(.text)
    SPI1_IRQHandler                          0x0800015f   Thumb Code     0  startup_stm32f10x_hd.o(.text)
    SPI2_IRQHandler                          0x0800015f   Thumb Code     0  startup_stm32f10x_hd.o(.text)
    SPI3_IRQHandler                          0x0800015f   Thumb Code     0  startup_stm32f10x_hd.o(.text)
    TAMPER_IRQHandler                        0x0800015f   Thumb Code     0  startup_stm32f10x_hd.o(.text)
    TIM1_BRK_IRQHandler                      0x0800015f   Thumb Code     0  startup_stm32f10x_hd.o(.text)
    TIM1_CC_IRQHandler                       0x0800015f   Thumb Code     0  startup_stm32f10x_hd.o(.text)
    TIM1_TRG_COM_IRQHandler                  0x0800015f   Thumb Code     0  startup_stm32f10x_hd.o(.text)
    TIM1_UP_IRQHandler                       0x0800015f   Thumb Code     0  startup_stm32f10x_hd.o(.text)
    TIM2_IRQHandler                          0x0800015f   Thumb Code     0  startup_stm32f10x_hd.o(.text)
    TIM5_IRQHandler                          0x0800015f   Thumb Code     0  startup_stm32f10x_hd.o(.text)
    TIM6_IRQHandler                          0x0800015f   Thumb Code     0  startup_stm32f10x_hd.o(.text)
    TIM7_IRQHandler                          0x0800015f   Thumb Code     0  startup_stm32f10x_hd.o(.text)
    TIM8_BRK_IRQHandler                      0x0800015f   Thumb Code     0  startup_stm32f10x_hd.o(.text)
    TIM8_CC_IRQHandler                       0x0800015f   Thumb Code     0  startup_stm32f10x_hd.o(.text)
    TIM8_TRG_COM_IRQHandler                  0x0800015f   Thumb Code     0  startup_stm32f10x_hd.o(.text)
    TIM8_UP_IRQHandler                       0x0800015f   Thumb Code     0  startup_stm32f10x_hd.o(.text)
    UART4_IRQHandler                         0x0800015f   Thumb Code     0  startup_stm32f10x_hd.o(.text)
    UART5_IRQHandler                         0x0800015f   Thumb Code     0  startup_stm32f10x_hd.o(.text)
    USART3_IRQHandler                        0x0800015f   Thumb Code     0  startup_stm32f10x_hd.o(.text)
    USBWakeUp_IRQHandler                     0x0800015f   Thumb Code     0  startup_stm32f10x_hd.o(.text)
    USB_HP_CAN1_TX_IRQHandler                0x0800015f   Thumb Code     0  startup_stm32f10x_hd.o(.text)
    USB_LP_CAN1_RX0_IRQHandler               0x0800015f   Thumb Code     0  startup_stm32f10x_hd.o(.text)
    WWDG_IRQHandler                          0x0800015f   Thumb Code     0  startup_stm32f10x_hd.o(.text)
    rand                                     0x08000169   Thumb Code    20  rand.o(.text)
    srand                                    0x0800017d   Thumb Code     6  rand.o(.text)
    __aeabi_memcpy                           0x0800018d   Thumb Code    36  memcpya.o(.text)
    __aeabi_memcpy4                          0x0800018d   Thumb Code     0  memcpya.o(.text)
    __aeabi_memcpy8                          0x0800018d   Thumb Code     0  memcpya.o(.text)
    __aeabi_memset                           0x080001b1   Thumb Code    14  memseta.o(.text)
    __aeabi_memset4                          0x080001b1   Thumb Code     0  memseta.o(.text)
    __aeabi_memset8                          0x080001b1   Thumb Code     0  memseta.o(.text)
    __aeabi_memclr                           0x080001bf   Thumb Code     4  memseta.o(.text)
    __aeabi_memclr4                          0x080001bf   Thumb Code     0  memseta.o(.text)
    __aeabi_memclr8                          0x080001bf   Thumb Code     0  memseta.o(.text)
    _memset$wrapper                          0x080001c3   Thumb Code    18  memseta.o(.text)
    strncpy                                  0x080001d5   Thumb Code    24  strncpy.o(.text)
    strlen                                   0x080001ed   Thumb Code    14  strlen.o(.text)
    strcmp                                   0x080001fb   Thumb Code    28  strcmp.o(.text)
    memcmp                                   0x08000217   Thumb Code    26  memcmp.o(.text)
    strcpy                                   0x08000231   Thumb Code    18  strcpy.o(.text)
    __aeabi_uidiv                            0x08000243   Thumb Code     0  uidiv.o(.text)
    __aeabi_uidivmod                         0x08000243   Thumb Code    44  uidiv.o(.text)
    __scatterload                            0x08000271   Thumb Code    28  init.o(.text)
    __scatterload_rt2                        0x08000271   Thumb Code     0  init.o(.text)
    __decompress                             0x08000295   Thumb Code     0  __dczerorl2.o(.text)
    __decompress1                            0x08000295   Thumb Code    86  __dczerorl2.o(.text)
    ChapAuthPeer                             0x080002ed   Thumb Code    68  chap.o(i.ChapAuthPeer)
    ChapAuthWithPeer                         0x08000335   Thumb Code    50  chap.o(i.ChapAuthWithPeer)
    EXIT_init                                0x08000ba1   Thumb Code   120  nvic.o(i.EXIT_init)
    EXTI1_IRQHandler                         0x08000c19   Thumb Code    98  nvic.o(i.EXTI1_IRQHandler)
    EXTI3_IRQHandler                         0x08000c91   Thumb Code    18  nvic.o(i.EXTI3_IRQHandler)
    EXTI4_IRQHandler                         0x08000ca5   Thumb Code    36  nvic.o(i.EXTI4_IRQHandler)
    EXTI_ClearITPendingBit                   0x08000cd5   Thumb Code     6  stm32f10x_exti.o(i.EXTI_ClearITPendingBit)
    EXTI_GenerateSWInterrupt                 0x08000ce1   Thumb Code    12  stm32f10x_exti.o(i.EXTI_GenerateSWInterrupt)
    EXTI_GetITStatus                         0x08000cf1   Thumb Code    34  stm32f10x_exti.o(i.EXTI_GetITStatus)
    EXTI_Init                                0x08000d19   Thumb Code   142  stm32f10x_exti.o(i.EXTI_Init)
    GPIO_Init                                0x08000dad   Thumb Code   278  stm32f10x_gpio.o(i.GPIO_Init)
    GPIO_SetBits                             0x08000ec3   Thumb Code     4  stm32f10x_gpio.o(i.GPIO_SetBits)
    GetMask                                  0x08000ec9   Thumb Code    60  ppp.o(i.GetMask)
    KEY_Init                                 0x08000f0d   Thumb Code   116  key.o(i.KEY_Init)
    KEY_Scan                                 0x08000f8d   Thumb Code   120  key.o(i.KEY_Scan)
    LED_Init                                 0x08001011   Thumb Code    72  led.o(i.LED_Init)
    MD5Final                                 0x080011f9   Thumb Code   218  md5.o(i.MD5Final)
    MD5Init                                  0x080012d9   Thumb Code    26  md5.o(i.MD5Init)
    MD5Update                                0x080012fd   Thumb Code   172  md5.o(i.MD5Update)
    NVIC_Configuration                       0x080013a9   Thumb Code    12  nvic.o(i.NVIC_Configuration)
    NVIC_Init                                0x080013b5   Thumb Code   100  misc.o(i.NVIC_Init)
    NVIC_PriorityGroupConfig                 0x08001425   Thumb Code    10  misc.o(i.NVIC_PriorityGroupConfig)
    RCC_APB1PeriphClockCmd                   0x08001439   Thumb Code    26  stm32f10x_rcc.o(i.RCC_APB1PeriphClockCmd)
    RCC_APB1PeriphResetCmd                   0x08001459   Thumb Code    26  stm32f10x_rcc.o(i.RCC_APB1PeriphResetCmd)
    RCC_APB2PeriphClockCmd                   0x08001479   Thumb Code    26  stm32f10x_rcc.o(i.RCC_APB2PeriphClockCmd)
    RCC_APB2PeriphResetCmd                   0x08001499   Thumb Code    26  stm32f10x_rcc.o(i.RCC_APB2PeriphResetCmd)
    RCC_GetClocksFreq                        0x080014b9   Thumb Code   192  stm32f10x_rcc.o(i.RCC_GetClocksFreq)
    SystemInit                               0x08001675   Thumb Code    78  system_stm32f10x.o(i.SystemInit)
    TCP_Client_Init                          0x080016d5   Thumb Code    40  main.o(i.TCP_Client_Init)
    TIM3_IRQHandler                          0x08001709   Thumb Code    88  timer.o(i.TIM3_IRQHandler)
    TIM3_Int_Init                            0x08001775   Thumb Code    92  timer.o(i.TIM3_Int_Init)
    TIM4_IRQHandler                          0x080017d5   Thumb Code   180  timer.o(i.TIM4_IRQHandler)
    TIM4_Init                                0x080018a9   Thumb Code    90  timer.o(i.TIM4_Init)
    TIM4_Set                                 0x0800190d   Thumb Code    44  timer.o(i.TIM4_Set)
    TIM_ClearITPendingBit                    0x0800193d   Thumb Code     6  stm32f10x_tim.o(i.TIM_ClearITPendingBit)
    TIM_Cmd                                  0x08001943   Thumb Code    24  stm32f10x_tim.o(i.TIM_Cmd)
    TIM_GetITStatus                          0x0800195b   Thumb Code    34  stm32f10x_tim.o(i.TIM_GetITStatus)
    TIM_ITConfig                             0x0800197d   Thumb Code    18  stm32f10x_tim.o(i.TIM_ITConfig)
    TIM_TimeBaseInit                         0x08001991   Thumb Code   122  stm32f10x_tim.o(i.TIM_TimeBaseInit)
    TcpCli_Connected                         0x08001a35   Thumb Code    30  main.o(i.TcpCli_Connected)
    USART1_IRQHandler                        0x08002201   Thumb Code     2  usart1.o(i.USART1_IRQHandler)
    USART2_IRQHandler                        0x08002205   Thumb Code    80  usart2.o(i.USART2_IRQHandler)
    USART2_SEND                              0x08002265   Thumb Code    42  usart2.o(i.USART2_SEND)
    USART_Cmd                                0x08002295   Thumb Code    24  stm32f10x_usart.o(i.USART_Cmd)
    USART_DeInit                             0x080022ad   Thumb Code   134  stm32f10x_usart.o(i.USART_DeInit)
    USART_ITConfig                           0x08002349   Thumb Code    74  stm32f10x_usart.o(i.USART_ITConfig)
    USART_Init                               0x08002395   Thumb Code   210  stm32f10x_usart.o(i.USART_Init)
    __0printf$3                              0x0800246d   Thumb Code    22  printf3.o(i.__0printf$3)
    __1printf$3                              0x0800246d   Thumb Code     0  printf3.o(i.__0printf$3)
    __2printf                                0x0800246d   Thumb Code     0  printf3.o(i.__0printf$3)
    __scatterload_copy                       0x0800248d   Thumb Code    14  handlers.o(i.__scatterload_copy)
    __scatterload_null                       0x0800249b   Thumb Code     2  handlers.o(i.__scatterload_null)
    __scatterload_zeroinit                   0x0800249d   Thumb Code    14  handlers.o(i.__scatterload_zeroinit)
    auth_ip_addr                             0x08002665   Thumb Code    20  auth.o(i.auth_ip_addr)
    auth_peer_fail                           0x0800267d   Thumb Code    16  auth.o(i.auth_peer_fail)
    auth_peer_success                        0x080026a5   Thumb Code    88  auth.o(i.auth_peer_success)
    auth_reset                               0x08002705   Thumb Code   168  auth.o(i.auth_reset)
    auth_withpeer_fail                       0x080027c1   Thumb Code    48  auth.o(i.auth_withpeer_fail)
    auth_withpeer_success                    0x08002825   Thumb Code    74  auth.o(i.auth_withpeer_success)
    avRandom                                 0x0800287d   Thumb Code    24  randm.o(i.avRandom)
    avRandomInit                             0x08002899   Thumb Code    26  randm.o(i.avRandomInit)
    avRandomize                              0x080028b9   Thumb Code    50  randm.o(i.avRandomize)
    bad_ip_adrs                              0x080028f9   Thumb Code    48  auth.o(i.bad_ip_adrs)
    check_passwd                             0x080029a1   Thumb Code    18  auth.o(i.check_passwd)
    cifaddr                                  0x080029b5   Thumb Code    72  ppp.o(i.cifaddr)
    cifdefaultroute                          0x08002a01   Thumb Code    56  ppp.o(i.cifdefaultroute)
    delay_init                               0x08002a65   Thumb Code    56  delay.o(i.delay_init)
    delay_ms                                 0x08002aa5   Thumb Code    56  delay.o(i.delay_ms)
    dns_init                                 0x08002ced   Thumb Code    82  dns.o(i.dns_init)
    dns_setserver                            0x08003115   Thumb Code    28  dns.o(i.dns_setserver)
    dns_tmr                                  0x08003159   Thumb Code    18  dns.o(i.dns_tmr)
    fputc                                    0x08003171   Thumb Code    24  usart1.o(i.fputc)
    fsm_close                                0x0800318d   Thumb Code   174  fsm.o(i.fsm_close)
    fsm_init                                 0x08003241   Thumb Code    30  fsm.o(i.fsm_init)
    fsm_input                                0x0800325f   Thumb Code   222  fsm.o(i.fsm_input)
    fsm_lowerdown                            0x0800333d   Thumb Code   112  fsm.o(i.fsm_lowerdown)
    fsm_lowerup                              0x080033b1   Thumb Code    56  fsm.o(i.fsm_lowerup)
    fsm_open                                 0x080033e9   Thumb Code   108  fsm.o(i.fsm_open)
    fsm_protreject                           0x08003455   Thumb Code   182  fsm.o(i.fsm_protreject)
    fsm_sdata                                0x08003955   Thumb Code   142  fsm.o(i.fsm_sdata)
    get_idle_time                            0x08003abd   Thumb Code     6  ppp.o(i.get_idle_time)
    get_secret                               0x08003aed   Thumb Code    78  auth.o(i.get_secret)
    inet_chksum                              0x08003b4f   Thumb Code    20  inet_chksum.o(i.inet_chksum)
    inet_chksum_pseudo                       0x08003b63   Thumb Code   170  inet_chksum.o(i.inet_chksum_pseudo)
    ip4_addr_isbroadcast                     0x08003c0d   Thumb Code    78  ip_addr.o(i.ip4_addr_isbroadcast)
    ip_frag                                  0x08003c89   Thumb Code   466  ip_frag.o(i.ip_frag)
    ip_input                                 0x08003f6d   Thumb Code   522  ip.o(i.ip_input)
    ip_output                                0x08004191   Thumb Code   104  ip.o(i.ip_output)
    ip_output_hinted                         0x08004255   Thumb Code   122  ip.o(i.ip_output_hinted)
    ip_output_if                             0x0800432d   Thumb Code   358  ip.o(i.ip_output_if)
    ip_reass                                 0x08004525   Thumb Code   460  ip_frag.o(i.ip_reass)
    ip_reass_tmr                             0x08004d81   Thumb Code    56  ip_frag.o(i.ip_reass_tmr)
    ip_route                                 0x08004dbd   Thumb Code    92  ip.o(i.ip_route)
    ipaddr_addr                              0x08004e25   Thumb Code    24  ip_addr.o(i.ipaddr_addr)
    ipaddr_aton                              0x08004e3d   Thumb Code   368  ip_addr.o(i.ipaddr_aton)
    lcp_close                                0x080067d1   Thumb Code    64  lcp.o(i.lcp_close)
    lcp_init                                 0x080069b9   Thumb Code   360  lcp.o(i.lcp_init)
    lcp_lowerdown                            0x08006b61   Thumb Code    20  lcp.o(i.lcp_lowerdown)
    lcp_lowerup                              0x08006b79   Thumb Code   152  lcp.o(i.lcp_lowerup)
    lcp_open                                 0x080070d9   Thumb Code    74  lcp.o(i.lcp_open)
    lcp_sprotrej                             0x08007a51   Thumb Code    60  lcp.o(i.lcp_sprotrej)
    link_down                                0x08007c09   Thumb Code   110  auth.o(i.link_down)
    link_established                         0x08007c99   Thumb Code   286  auth.o(i.link_established)
    link_required                            0x08007e01   Thumb Code     2  auth.o(i.link_required)
    link_terminated                          0x08007e05   Thumb Code    38  auth.o(i.link_terminated)
    lwip_htonl                               0x08007e35   Thumb Code    26  def.o(i.lwip_htonl)
    lwip_htons                               0x08007e4f   Thumb Code    12  def.o(i.lwip_htons)
    lwip_init                                0x08007e5b   Thumb Code    32  init.o(i.lwip_init)
    lwip_ntohl                               0x08007e7b   Thumb Code    12  def.o(i.lwip_ntohl)
    lwip_ntohs                               0x08007e87   Thumb Code    12  def.o(i.lwip_ntohs)
    magic                                    0x08007ef1   Thumb Code     8  magic.o(i.magic)
    magicInit                                0x08007ef9   Thumb Code     2  magic.o(i.magicInit)
    main                                     0x08007efd   Thumb Code   318  main.o(i.main)
    mem_free                                 0x08008061   Thumb Code   182  mem.o(i.mem_free)
    mem_init                                 0x080081bd   Thumb Code    74  mem.o(i.mem_init)
    mem_malloc                               0x08008219   Thumb Code   402  mem.o(i.mem_malloc)
    mem_trim                                 0x080084a1   Thumb Code   328  mem.o(i.mem_trim)
    netif_add                                0x080086b1   Thumb Code   164  netif.o(i.netif_add)
    netif_init                               0x080087bd   Thumb Code     2  netif.o(i.netif_init)
    netif_remove                             0x080087c1   Thumb Code    94  netif.o(i.netif_remove)
    netif_set_addr                           0x08008829   Thumb Code    40  netif.o(i.netif_set_addr)
    netif_set_default                        0x08008851   Thumb Code    10  netif.o(i.netif_set_default)
    netif_set_down                           0x08008861   Thumb Code    42  netif.o(i.netif_set_down)
    netif_set_gw                             0x0800888b   Thumb Code    16  netif.o(i.netif_set_gw)
    netif_set_ipaddr                         0x0800889d   Thumb Code   124  netif.o(i.netif_set_ipaddr)
    netif_set_netmask                        0x08008921   Thumb Code    16  netif.o(i.netif_set_netmask)
    netif_set_up                             0x08008931   Thumb Code    44  netif.o(i.netif_set_up)
    np_down                                  0x08008a11   Thumb Code    36  auth.o(i.np_down)
    np_finished                              0x08008a41   Thumb Code    30  auth.o(i.np_finished)
    np_up                                    0x08008a85   Thumb Code   104  auth.o(i.np_up)
    pbuf_alloc                               0x08008b05   Thumb Code   726  pbuf.o(i.pbuf_alloc)
    pbuf_alloced_custom                      0x08008f69   Thumb Code   150  pbuf.o(i.pbuf_alloced_custom)
    pbuf_cat                                 0x0800906d   Thumb Code   146  pbuf.o(i.pbuf_cat)
    pbuf_chain                               0x080091c1   Thumb Code    26  pbuf.o(i.pbuf_chain)
    pbuf_clen                                0x080091db   Thumb Code    18  pbuf.o(i.pbuf_clen)
    pbuf_copy_partial                        0x080091ed   Thumb Code   190  pbuf.o(i.pbuf_copy_partial)
    pbuf_free                                0x08009339   Thumb Code   292  pbuf.o(i.pbuf_free)
    pbuf_header                              0x08009505   Thumb Code   214  pbuf.o(i.pbuf_header)
    pbuf_realloc                             0x08009661   Thumb Code   292  pbuf.o(i.pbuf_realloc)
    pbuf_ref                                 0x08009849   Thumb Code    10  pbuf.o(i.pbuf_ref)
    pppIOCtl                                 0x08009ad9   Thumb Code   120  ppp.o(i.pppIOCtl)
    pppInit                                  0x08009d3d   Thumb Code    88  ppp.o(i.pppInit)
    pppLinkDown                              0x08009f7d   Thumb Code     2  ppp.o(i.pppLinkDown)
    pppLinkTerminated                        0x08009f81   Thumb Code    54  ppp.o(i.pppLinkTerminated)
    pppMTU                                   0x08009fbd   Thumb Code    42  ppp.o(i.pppMTU)
    pppOverSerialOpen                        0x08009fed   Thumb Code   130  ppp.o(i.pppOverSerialOpen)
    pppSetAuth                               0x0800a075   Thumb Code   194  ppp.o(i.pppSetAuth)
    pppSingleBuf                             0x0800a141   Thumb Code    74  ppp.o(i.pppSingleBuf)
    pppWrite                                 0x0800a19d   Thumb Code   210  ppp.o(i.pppWrite)
    ppp_recv_config                          0x0800a279   Thumb Code    54  ppp.o(i.ppp_recv_config)
    ppp_send_config                          0x0800a2b5   Thumb Code    62  ppp.o(i.ppp_send_config)
    ppp_set_xaccm                            0x0800a2f9   Thumb Code    34  ppp.o(i.ppp_set_xaccm)
    pppos_input                              0x0800a50d   Thumb Code    38  ppp.o(i.pppos_input)
    raw_input                                0x0800a53d   Thumb Code   102  raw.o(i.raw_input)
    sifaddr                                  0x0800a5b1   Thumb Code    76  ppp.o(i.sifaddr)
    sifdefaultroute                          0x0800a601   Thumb Code    58  ppp.o(i.sifdefaultroute)
    sifdown                                  0x0800a641   Thumb Code    78  ppp.o(i.sifdown)
    sifnpmode                                0x0800a695   Thumb Code     6  ppp.o(i.sifnpmode)
    sifup                                    0x0800a69d   Thumb Code   116  ppp.o(i.sifup)
    sifvjcomp                                0x0800a71d   Thumb Code     8  ppp.o(i.sifvjcomp)
    sio_write                                0x0800a725   Thumb Code   116  sio.o(i.sio_write)
    stats_init                               0x0800a7a1   Thumb Code     2  stats.o(i.stats_init)
    sys_jiffies                              0x0800a7a5   Thumb Code     6  sys_arch.o(i.sys_jiffies)
    sys_now                                  0x0800a7b1   Thumb Code     6  sys_arch.o(i.sys_now)
    sys_timeout                              0x0800a7bd   Thumb Code   184  timers.o(i.sys_timeout)
    sys_timeouts_init                        0x0800a909   Thumb Code    36  timers.o(i.sys_timeouts_init)
    sys_untimeout                            0x0800a939   Thumb Code    88  timers.o(i.sys_untimeout)
    tcp_abandon                              0x0800a995   Thumb Code   168  tcp.o(i.tcp_abandon)
    tcp_abort                                0x0800aac5   Thumb Code    14  tcp.o(i.tcp_abort)
    tcp_alloc                                0x0800aad5   Thumb Code   198  tcp.o(i.tcp_alloc)
    tcp_bind                                 0x0800abad   Thumb Code   168  tcp.o(i.tcp_bind)
    tcp_close                                0x0800accd   Thumb Code    28  tcp.o(i.tcp_close)
    tcp_connect                              0x0800af2d   Thumb Code   350  tcp.o(i.tcp_connect)
    tcp_eff_send_mss                         0x0800b1e9   Thumb Code    46  tcp.o(i.tcp_eff_send_mss)
    tcp_enqueue_flags                        0x0800b219   Thumb Code   522  tcp_out.o(i.tcp_enqueue_flags)
    tcp_fasttmr                              0x0800b521   Thumb Code   114  tcp.o(i.tcp_fasttmr)
    tcp_init                                 0x0800b5a1   Thumb Code     2  tcp.o(i.tcp_init)
    tcp_input                                0x0800b5a5   Thumb Code  1868  tcp_in.o(i.tcp_input)
    tcp_keepalive                            0x0800bd39   Thumb Code   118  tcp_out.o(i.tcp_keepalive)
    tcp_new                                  0x0800bfb5   Thumb Code    10  tcp.o(i.tcp_new)
    tcp_next_iss                             0x0800c029   Thumb Code    20  tcp.o(i.tcp_next_iss)
    tcp_output                               0x0800c045   Thumb Code   508  tcp_out.o(i.tcp_output)
    tcp_pcb_purge                            0x0800c6b5   Thumb Code   214  tcp.o(i.tcp_pcb_purge)
    tcp_pcb_remove                           0x0800c815   Thumb Code   200  tcp.o(i.tcp_pcb_remove)
    tcp_process_refused_data                 0x0800d005   Thumb Code   148  tcp.o(i.tcp_process_refused_data)
    tcp_recv_null                            0x0800da1d   Thumb Code    46  tcp.o(i.tcp_recv_null)
    tcp_recved                               0x0800da4d   Thumb Code   144  tcp.o(i.tcp_recved)
    tcp_rexmit                               0x0800db71   Thumb Code    90  tcp_out.o(i.tcp_rexmit)
    tcp_rexmit_fast                          0x0800dbcb   Thumb Code   120  tcp_out.o(i.tcp_rexmit_fast)
    tcp_rexmit_rto                           0x0800dc43   Thumb Code    58  tcp_out.o(i.tcp_rexmit_rto)
    tcp_rst                                  0x0800dc7d   Thumb Code   196  tcp_out.o(i.tcp_rst)
    tcp_seg_free                             0x0800ddc1   Thumb Code    24  tcp.o(i.tcp_seg_free)
    tcp_segs_free                            0x0800ddd9   Thumb Code    24  tcp.o(i.tcp_segs_free)
    tcp_send_empty_ack                       0x0800ddf1   Thumb Code   110  tcp_out.o(i.tcp_send_empty_ack)
    tcp_send_fin                             0x0800de5f   Thumb Code    74  tcp_out.o(i.tcp_send_fin)
    tcp_slowtmr                              0x0800dea9   Thumb Code  1434  tcp.o(i.tcp_slowtmr)
    tcp_timer_needed                         0x0800e4cd   Thumb Code    38  timers.o(i.tcp_timer_needed)
    tcp_tmr                                  0x0800e5b1   Thumb Code    30  tcp.o(i.tcp_tmr)
    tcp_update_rcv_ann_wnd                   0x0800e5d5   Thumb Code   110  tcp.o(i.tcp_update_rcv_ann_wnd)
    tcp_write                                0x0800e6a9   Thumb Code  1790  tcp_out.o(i.tcp_write)
    tcp_zero_window_probe                    0x0800efd1   Thumb Code   218  tcp_out.o(i.tcp_zero_window_probe)
    udp_bind                                 0x0800f0e9   Thumb Code   178  udp.o(i.udp_bind)
    udp_connect                              0x0800f1f5   Thumb Code    98  udp.o(i.udp_connect)
    udp_init                                 0x0800f25d   Thumb Code     2  udp.o(i.udp_init)
    udp_input                                0x0800f261   Thumb Code   540  udp.o(i.udp_input)
    udp_new                                  0x0800f4e9   Thumb Code    30  udp.o(i.udp_new)
    udp_recv                                 0x0800f565   Thumb Code     6  udp.o(i.udp_recv)
    udp_sendto                               0x0800f56d   Thumb Code    70  udp.o(i.udp_sendto)
    udp_sendto_if                            0x0800f5b9   Thumb Code   340  udp.o(i.udp_sendto_if)
    upap_authpeer                            0x0800f789   Thumb Code    74  pap.o(i.upap_authpeer)
    upap_authwithpeer                        0x0800f7dd   Thumb Code    72  pap.o(i.upap_authwithpeer)
    usart1_init                              0x0800fcbd   Thumb Code   158  usart1.o(i.usart1_init)
    usart2_init                              0x0800fd65   Thumb Code   152  usart2.o(i.usart2_init)
    memp_sizes                               0x08010024   Data          20  memp.o(.constdata)
    tcp_state_str                            0x08010038   Data          44  tcp.o(.constdata)
    tcp_backoff                              0x08010064   Data          13  tcp.o(.constdata)
    tcp_persist_backoff                      0x08010071   Data           7  tcp.o(.constdata)
    tcp_pcb_lists                            0x08010078   Data          16  tcp.o(.constdata)
    ip_addr_any                              0x08010088   Data           4  ip_addr.o(.constdata)
    ip_addr_broadcast                        0x0801008c   Data           4  ip_addr.o(.constdata)
    Region$$Table$$Base                      0x080101bc   Number         0  anon$$obj.o(Region$$Table)
    Region$$Table$$Limit                     0x080101dc   Number         0  anon$$obj.o(Region$$Table)
    AT_AT                                    0x20000000   Data           5  main.o(.data)
    AT_CGCLASS                               0x20000005   Data          17  main.o(.data)
    AT_CGDOCNT                               0x20000016   Data          28  main.o(.data)
    AT_ATD                                   0x20000032   Data          10  main.o(.data)
    PPP_LCP_RE                               0x2000003c   Data          30  main.o(.data)
    PPP_LCP_ACK                              0x2000005a   Data          33  main.o(.data)
    PPP_IPCP_REQ                             0x2000007b   Data          18  main.o(.data)
    usart2_flag                              0x20000090   Data           4  main.o(.data)
    pd                                       0x20000094   Data           4  main.o(.data)
    LED1_flag                                0x20000098   Data           4  main.o(.data)
    len                                      0x2000009c   Data           4  timer.o(.data)
    t                                        0x200000a0   Data           4  timer.o(.data)
    ttt                                      0x200000a4   Data           4  timer.o(.data)
    lwip_time                                0x200000a8   Data           4  timer.o(.data)
    USART1_SEND_LEN                          0x200000ac   Data           1  usart1.o(.data)
    p_usart1_send_data                       0x200000b0   Data           4  usart1.o(.data)
    USART1_RX_STA                            0x200000b4   Data           2  usart1.o(.data)
    __stdout                                 0x200000b8   Data           4  usart1.o(.data)
    USART2_SEND_LEN                          0x200000bc   Data           1  usart2.o(.data)
    p_usart2_send_data                       0x200000c0   Data           4  usart2.o(.data)
    USART2_RX_STA                            0x200000c4   Data           2  usart2.o(.data)
    USART2_RX_STA_BACKUP                     0x200000c6   Data           2  usart2.o(.data)
    chap_protent                             0x200000ec   Data          40  chap.o(.data)
    peer_mru                                 0x20000114   Data           4  fsm.o(.data)
    ipcp_protent                             0x2000015c   Data          40  ipcp.o(.data)
    lcp_phase                                0x20000184   Data           1  lcp.o(.data)
    lcp_protent                              0x200001d8   Data          40  lcp.o(.data)
    lcp_loopbackfail                         0x20000200   Data           4  lcp.o(.data)
    pap_protent                              0x20000244   Data          40  pap.o(.data)
    subnetMask                               0x2000026c   Data           4  ppp.o(.data)
    ppp_protocols                            0x20000270   Data          20  ppp.o(.data)
    netif_list                               0x200002b8   Data           4  netif.o(.data)
    netif_default                            0x200002bc   Data           4  netif.o(.data)
    tcp_ticks                                0x200002cc   Data           4  tcp.o(.data)
    tcp_bound_pcbs                           0x200002d0   Data           4  tcp.o(.data)
    tcp_listen_pcbs                          0x200002d4   Data           4  tcp.o(.data)
    tcp_active_pcbs                          0x200002d8   Data           4  tcp.o(.data)
    tcp_tw_pcbs                              0x200002dc   Data           4  tcp.o(.data)
    tcp_tmp_pcb                              0x200002e0   Data           4  tcp.o(.data)
    tcp_active_pcbs_changed                  0x200002e4   Data           1  tcp.o(.data)
    tcp_input_pcb                            0x20000308   Data           4  tcp_in.o(.data)
    udp_pcbs                                 0x2000031c   Data           4  udp.o(.data)
    current_netif                            0x20000320   Data           4  ip.o(.data)
    current_header                           0x20000324   Data           4  ip.o(.data)
    current_iphdr_src                        0x20000328   Data           4  ip.o(.data)
    current_iphdr_dest                       0x2000032c   Data           4  ip.o(.data)
    USART2_TX_BUF                            0x20000358   Data        1600  usart2.o(.bss)
    USART2_RX_BUF                            0x20000998   Data        1600  usart2.o(.bss)
    chap                                     0x200010d8   Data         176  chap.o(.bss)
    ipcp_wantoptions                         0x20001188   Data          32  ipcp.o(.bss)
    ipcp_gotoptions                          0x200011a8   Data          32  ipcp.o(.bss)
    ipcp_allowoptions                        0x200011c8   Data          32  ipcp.o(.bss)
    ipcp_hisoptions                          0x200011e8   Data          32  ipcp.o(.bss)
    ipcp_fsm                                 0x20001208   Data          56  ipcp.o(.bss)
    lcp_wantoptions                          0x20001278   Data          24  lcp.o(.bss)
    lcp_gotoptions                           0x20001290   Data          24  lcp.o(.bss)
    lcp_allowoptions                         0x200012a8   Data          24  lcp.o(.bss)
    lcp_hisoptions                           0x200012c0   Data          24  lcp.o(.bss)
    xmit_accm                                0x200012d8   Data          32  lcp.o(.bss)
    upap                                     0x200018d4   Data          48  pap.o(.bss)
    outpacket_buf                            0x200019d4   Data        1504  ppp.o(.bss)
    ppp_settings                             0x20001fb4   Data        1036  ppp.o(.bss)
    ram_heap                                 0x20002a23   Data       10260  mem.o(.bss)
    lwip_stats                               0x20005238   Data         120  stats.o(.bss)
    __initial_sp                             0x200056c8   Data           0  startup_stm32f10x_hd.o(STACK)



==============================================================================

Memory Map of the image

  Image Entry point : 0x08000131

  Load Region LR_IROM1 (Base: 0x08000000, Size: 0x00010530, Max: 0x00040000, ABSOLUTE, COMPRESSED[0x00010354])

    Execution Region ER_IROM1 (Base: 0x08000000, Size: 0x000101dc, Max: 0x00040000, ABSOLUTE)

    Base Addr    Size         Type   Attr      Idx    E Section Name        Object

    0x08000000   0x00000130   Data   RO         3638    RESET               startup_stm32f10x_hd.o
    0x08000130   0x00000000   Code   RO         4893  * .ARM.Collect$$$$00000000  mc_w.l(entry.o)
    0x08000130   0x00000004   Code   RO         5180    .ARM.Collect$$$$00000001  mc_w.l(entry2.o)
    0x08000134   0x00000004   Code   RO         5183    .ARM.Collect$$$$00000004  mc_w.l(entry5.o)
    0x08000138   0x00000000   Code   RO         5185    .ARM.Collect$$$$00000008  mc_w.l(entry7b.o)
    0x08000138   0x00000000   Code   RO         5187    .ARM.Collect$$$$0000000A  mc_w.l(entry8b.o)
    0x08000138   0x00000008   Code   RO         5188    .ARM.Collect$$$$0000000B  mc_w.l(entry9a.o)
    0x08000140   0x00000000   Code   RO         5190    .ARM.Collect$$$$0000000D  mc_w.l(entry10a.o)
    0x08000140   0x00000000   Code   RO         5192    .ARM.Collect$$$$0000000F  mc_w.l(entry11a.o)
    0x08000140   0x00000004   Code   RO         5181    .ARM.Collect$$$$00002712  mc_w.l(entry2.o)
    0x08000144   0x00000024   Code   RO         3639    .text               startup_stm32f10x_hd.o
    0x08000168   0x00000024   Code   RO         4898    .text               mc_w.l(rand.o)
    0x0800018c   0x00000024   Code   RO         4903    .text               mc_w.l(memcpya.o)
    0x080001b0   0x00000024   Code   RO         4905    .text               mc_w.l(memseta.o)
    0x080001d4   0x00000018   Code   RO         4907    .text               mc_w.l(strncpy.o)
    0x080001ec   0x0000000e   Code   RO         4909    .text               mc_w.l(strlen.o)
    0x080001fa   0x0000001c   Code   RO         4911    .text               mc_w.l(strcmp.o)
    0x08000216   0x0000001a   Code   RO         4913    .text               mc_w.l(memcmp.o)
    0x08000230   0x00000012   Code   RO         4915    .text               mc_w.l(strcpy.o)
    0x08000242   0x0000002c   Code   RO         5194    .text               mc_w.l(uidiv.o)
    0x0800026e   0x00000002   PAD
    0x08000270   0x00000024   Code   RO         5209    .text               mc_w.l(init.o)
    0x08000294   0x00000056   Code   RO         5227    .text               mc_w.l(__dczerorl2.o)
    0x080002ea   0x00000002   PAD
    0x080002ec   0x00000048   Code   RO          828    i.ChapAuthPeer      chap.o
    0x08000334   0x00000038   Code   RO          829    i.ChapAuthWithPeer  chap.o
    0x0800036c   0x00000036   Code   RO          830    i.ChapChallengeTimeout  chap.o
    0x080003a2   0x00000002   PAD
    0x080003a4   0x000000c8   Code   RO          831    i.ChapGenChallenge  chap.o
    0x0800046c   0x00000030   Code   RO          832    i.ChapInit          chap.o
    0x0800049c   0x000000a4   Code   RO          833    i.ChapInput         chap.o
    0x08000540   0x00000060   Code   RO          834    i.ChapLowerDown     chap.o
    0x080005a0   0x0000004c   Code   RO          835    i.ChapLowerUp       chap.o
    0x080005ec   0x00000048   Code   RO          836    i.ChapProtocolReject  chap.o
    0x08000634   0x0000011c   Code   RO          837    i.ChapReceiveChallenge  chap.o
    0x08000750   0x00000030   Code   RO          838    i.ChapReceiveFailure  chap.o
    0x08000780   0x00000168   Code   RO          839    i.ChapReceiveResponse  chap.o
    0x080008e8   0x0000003c   Code   RO          840    i.ChapReceiveSuccess  chap.o
    0x08000924   0x00000022   Code   RO          841    i.ChapRechallenge   chap.o
    0x08000946   0x00000018   Code   RO          842    i.ChapResponseTimeout  chap.o
    0x0800095e   0x00000002   PAD
    0x08000960   0x000000bc   Code   RO          843    i.ChapSendChallenge  chap.o
    0x08000a1c   0x000000c4   Code   RO          844    i.ChapSendResponse  chap.o
    0x08000ae0   0x000000c0   Code   RO          845    i.ChapSendStatus    chap.o
    0x08000ba0   0x00000078   Code   RO          238    i.EXIT_init         nvic.o
    0x08000c18   0x00000078   Code   RO          239    i.EXTI1_IRQHandler  nvic.o
    0x08000c90   0x00000012   Code   RO          240    i.EXTI3_IRQHandler  nvic.o
    0x08000ca2   0x00000002   PAD
    0x08000ca4   0x00000030   Code   RO          241    i.EXTI4_IRQHandler  nvic.o
    0x08000cd4   0x0000000c   Code   RO         3741    i.EXTI_ClearITPendingBit  stm32f10x_exti.o
    0x08000ce0   0x00000010   Code   RO         3743    i.EXTI_GenerateSWInterrupt  stm32f10x_exti.o
    0x08000cf0   0x00000028   Code   RO         3745    i.EXTI_GetITStatus  stm32f10x_exti.o
    0x08000d18   0x00000094   Code   RO         3746    i.EXTI_Init         stm32f10x_exti.o
    0x08000dac   0x00000116   Code   RO         3812    i.GPIO_Init         stm32f10x_gpio.o
    0x08000ec2   0x00000004   Code   RO         3820    i.GPIO_SetBits      stm32f10x_gpio.o
    0x08000ec6   0x00000002   PAD
    0x08000ec8   0x00000044   Code   RO         1557    i.GetMask           ppp.o
    0x08000f0c   0x00000080   Code   RO          479    i.KEY_Init          key.o
    0x08000f8c   0x00000084   Code   RO          480    i.KEY_Scan          key.o
    0x08001010   0x00000050   Code   RO          211    i.LED_Init          led.o
    0x08001060   0x000000cc   Code   RO         1214    i.LcpEchoCheck      lcp.o
    0x0800112c   0x0000001c   Code   RO         1215    i.LcpEchoTimeout    lcp.o
    0x08001148   0x00000028   Code   RO         1216    i.LcpLinkFailure    lcp.o
    0x08001170   0x00000088   Code   RO         1217    i.LcpSendEchoRequest  lcp.o
    0x080011f8   0x000000e0   Code   RO         1416    i.MD5Final          md5.o
    0x080012d8   0x00000024   Code   RO         1417    i.MD5Init           md5.o
    0x080012fc   0x000000ac   Code   RO         1418    i.MD5Update         md5.o
    0x080013a8   0x0000000c   Code   RO          242    i.NVIC_Configuration  nvic.o
    0x080013b4   0x00000070   Code   RO         3692    i.NVIC_Init         misc.o
    0x08001424   0x00000014   Code   RO         3693    i.NVIC_PriorityGroupConfig  misc.o
    0x08001438   0x00000020   Code   RO         3934    i.RCC_APB1PeriphClockCmd  stm32f10x_rcc.o
    0x08001458   0x00000020   Code   RO         3935    i.RCC_APB1PeriphResetCmd  stm32f10x_rcc.o
    0x08001478   0x00000020   Code   RO         3936    i.RCC_APB2PeriphClockCmd  stm32f10x_rcc.o
    0x08001498   0x00000020   Code   RO         3937    i.RCC_APB2PeriphResetCmd  stm32f10x_rcc.o
    0x080014b8   0x000000d4   Code   RO         3944    i.RCC_GetClocksFreq  stm32f10x_rcc.o
    0x0800158c   0x00000008   Code   RO         3646    i.SetSysClock       system_stm32f10x.o
    0x08001594   0x000000e0   Code   RO         3647    i.SetSysClockTo72   system_stm32f10x.o
    0x08001674   0x00000060   Code   RO         3649    i.SystemInit        system_stm32f10x.o
    0x080016d4   0x00000034   Code   RO            4    i.TCP_Client_Init   main.o
    0x08001708   0x0000006c   Code   RO          295    i.TIM3_IRQHandler   timer.o
    0x08001774   0x00000060   Code   RO          296    i.TIM3_Int_Init     timer.o
    0x080017d4   0x000000d4   Code   RO          297    i.TIM4_IRQHandler   timer.o
    0x080018a8   0x00000064   Code   RO          298    i.TIM4_Init         timer.o
    0x0800190c   0x00000030   Code   RO          299    i.TIM4_Set          timer.o
    0x0800193c   0x00000006   Code   RO         4155    i.TIM_ClearITPendingBit  stm32f10x_tim.o
    0x08001942   0x00000018   Code   RO         4160    i.TIM_Cmd           stm32f10x_tim.o
    0x0800195a   0x00000022   Code   RO         4181    i.TIM_GetITStatus   stm32f10x_tim.o
    0x0800197c   0x00000012   Code   RO         4185    i.TIM_ITConfig      stm32f10x_tim.o
    0x0800198e   0x00000002   PAD
    0x08001990   0x000000a4   Code   RO         4231    i.TIM_TimeBaseInit  stm32f10x_tim.o
    0x08001a34   0x00000024   Code   RO            5    i.TcpCli_Connected  main.o
    0x08001a58   0x000007a8   Code   RO         1419    i.Transform         md5.o
    0x08002200   0x00000002   Code   RO          365    i.USART1_IRQHandler  usart1.o
    0x08002202   0x00000002   PAD
    0x08002204   0x00000060   Code   RO          429    i.USART2_IRQHandler  usart2.o
    0x08002264   0x00000030   Code   RO          430    i.USART2_SEND       usart2.o
    0x08002294   0x00000018   Code   RO         4708    i.USART_Cmd         stm32f10x_usart.o
    0x080022ac   0x0000009c   Code   RO         4710    i.USART_DeInit      stm32f10x_usart.o
    0x08002348   0x0000004a   Code   RO         4714    i.USART_ITConfig    stm32f10x_usart.o
    0x08002392   0x00000002   PAD
    0x08002394   0x000000d8   Code   RO         4715    i.USART_Init        stm32f10x_usart.o
    0x0800246c   0x00000020   Code   RO         5008    i.__0printf$3       mc_w.l(printf3.o)
    0x0800248c   0x0000000e   Code   RO         5221    i.__scatterload_copy  mc_w.l(handlers.o)
    0x0800249a   0x00000002   Code   RO         5222    i.__scatterload_null  mc_w.l(handlers.o)
    0x0800249c   0x0000000e   Code   RO         5223    i.__scatterload_zeroinit  mc_w.l(handlers.o)
    0x080024aa   0x00000002   PAD
    0x080024ac   0x000001b8   Code   RO         5015    i._printf_core      mc_w.l(printf3.o)
    0x08002664   0x00000018   Code   RO          633    i.auth_ip_addr      auth.o
    0x0800267c   0x00000028   Code   RO          634    i.auth_peer_fail    auth.o
    0x080026a4   0x00000060   Code   RO          635    i.auth_peer_success  auth.o
    0x08002704   0x000000bc   Code   RO          636    i.auth_reset        auth.o
    0x080027c0   0x00000064   Code   RO          637    i.auth_withpeer_fail  auth.o
    0x08002824   0x00000058   Code   RO          638    i.auth_withpeer_success  auth.o
    0x0800287c   0x0000001c   Code   RO         1844    i.avRandom          randm.o
    0x08002898   0x00000020   Code   RO         1845    i.avRandomInit      randm.o
    0x080028b8   0x00000040   Code   RO         1846    i.avRandomize       randm.o
    0x080028f8   0x00000030   Code   RO          639    i.bad_ip_adrs       auth.o
    0x08002928   0x00000078   Code   RO          640    i.check_idle        auth.o
    0x080029a0   0x00000012   Code   RO          641    i.check_passwd      auth.o
    0x080029b2   0x00000002   PAD
    0x080029b4   0x0000004c   Code   RO         1558    i.cifaddr           ppp.o
    0x08002a00   0x0000003c   Code   RO         1559    i.cifdefaultroute   ppp.o
    0x08002a3c   0x00000028   Code   RO          642    i.connect_time_expired  auth.o
    0x08002a64   0x00000040   Code   RO          513    i.delay_init        delay.o
    0x08002aa4   0x0000003c   Code   RO          514    i.delay_ms          delay.o
    0x08002ae0   0x00000016   Code   RO         1960    i.dns_check_entries  dns.o
    0x08002af6   0x00000002   PAD
    0x08002af8   0x000001b8   Code   RO         1961    i.dns_check_entry   dns.o
    0x08002cb0   0x0000003c   Code   RO         1962    i.dns_compare_name  dns.o
    0x08002cec   0x00000078   Code   RO         1966    i.dns_init          dns.o
    0x08002d64   0x0000002a   Code   RO         1968    i.dns_parse_name    dns.o
    0x08002d8e   0x00000002   PAD
    0x08002d90   0x00000188   Code   RO         1969    i.dns_recv          dns.o
    0x08002f18   0x000001fc   Code   RO         1970    i.dns_send          dns.o
    0x08003114   0x00000024   Code   RO         1971    i.dns_setserver     dns.o
    0x08003138   0x00000020   Code   RO         3027    i.dns_timer         timers.o
    0x08003158   0x00000018   Code   RO         1972    i.dns_tmr           dns.o
    0x08003170   0x0000001c   Code   RO          368    i.fputc             usart1.o
    0x0800318c   0x000000b4   Code   RO          976    i.fsm_close         fsm.o
    0x08003240   0x0000001e   Code   RO          977    i.fsm_init          fsm.o
    0x0800325e   0x000000de   Code   RO          978    i.fsm_input         fsm.o
    0x0800333c   0x00000074   Code   RO          979    i.fsm_lowerdown     fsm.o
    0x080033b0   0x00000038   Code   RO          980    i.fsm_lowerup       fsm.o
    0x080033e8   0x0000006c   Code   RO          981    i.fsm_open          fsm.o
    0x08003454   0x000000bc   Code   RO          982    i.fsm_protreject    fsm.o
    0x08003510   0x0000001e   Code   RO          983    i.fsm_rcoderej      fsm.o
    0x0800352e   0x00000002   PAD
    0x08003530   0x000000c8   Code   RO          984    i.fsm_rconfack      fsm.o
    0x080035f8   0x000000c8   Code   RO          985    i.fsm_rconfnakrej   fsm.o
    0x080036c0   0x000000f4   Code   RO          986    i.fsm_rconfreq      fsm.o
    0x080037b4   0x00000078   Code   RO          987    i.fsm_rtermack      fsm.o
    0x0800382c   0x00000070   Code   RO          988    i.fsm_rtermreq      fsm.o
    0x0800389c   0x000000b8   Code   RO          989    i.fsm_sconfreq      fsm.o
    0x08003954   0x00000098   Code   RO          990    i.fsm_sdata         fsm.o
    0x080039ec   0x000000d0   Code   RO          991    i.fsm_timeout       fsm.o
    0x08003abc   0x00000006   Code   RO         1560    i.get_idle_time     ppp.o
    0x08003ac2   0x00000002   PAD
    0x08003ac4   0x00000028   Code   RO          643    i.get_pap_passwd    auth.o
    0x08003aec   0x00000058   Code   RO          644    i.get_secret        auth.o
    0x08003b44   0x00000006   Code   RO          645    i.have_chap_secret  auth.o
    0x08003b4a   0x00000004   Code   RO          646    i.have_pap_secret   auth.o
    0x08003b4e   0x00000014   Code   RO         3278    i.inet_chksum       inet_chksum.o
    0x08003b62   0x000000aa   Code   RO         3280    i.inet_chksum_pseudo  inet_chksum.o
    0x08003c0c   0x0000004e   Code   RO         3400    i.ip4_addr_isbroadcast  ip_addr.o
    0x08003c5a   0x00000002   PAD
    0x08003c5c   0x0000002c   Code   RO          647    i.ip_addr_check     auth.o
    0x08003c88   0x0000024c   Code   RO         3465    i.ip_frag           ip_frag.o
    0x08003ed4   0x00000010   Code   RO         3466    i.ip_frag_alloc_pbuf_custom_ref  ip_frag.o
    0x08003ee4   0x00000088   Code   RO         3467    i.ip_frag_free_pbuf_custom_ref  ip_frag.o
    0x08003f6c   0x00000224   Code   RO         3334    i.ip_input          ip.o
    0x08004190   0x000000c4   Code   RO         3335    i.ip_output         ip.o
    0x08004254   0x000000d8   Code   RO         3336    i.ip_output_hinted  ip.o
    0x0800432c   0x000001f8   Code   RO         3337    i.ip_output_if      ip.o
    0x08004524   0x000001d8   Code   RO         3468    i.ip_reass          ip_frag.o
    0x080046fc   0x00000338   Code   RO         3469    i.ip_reass_chain_frag_into_datagram_and_validate  ip_frag.o
    0x08004a34   0x000000b4   Code   RO         3470    i.ip_reass_dequeue_datagram  ip_frag.o
    0x08004ae8   0x00000070   Code   RO         3471    i.ip_reass_enqueue_new_datagram  ip_frag.o
    0x08004b58   0x0000018c   Code   RO         3472    i.ip_reass_free_complete_datagram  ip_frag.o
    0x08004ce4   0x0000007c   Code   RO         3473    i.ip_reass_remove_oldest_datagram  ip_frag.o
    0x08004d60   0x00000020   Code   RO         3028    i.ip_reass_timer    timers.o
    0x08004d80   0x0000003c   Code   RO         3474    i.ip_reass_tmr      ip_frag.o
    0x08004dbc   0x00000068   Code   RO         3338    i.ip_route          ip.o
    0x08004e24   0x00000018   Code   RO         3402    i.ipaddr_addr       ip_addr.o
    0x08004e3c   0x000001cc   Code   RO         3403    i.ipaddr_aton       ip_addr.o
    0x08005008   0x000001f8   Code   RO         1088    i.ipcp_ackci        ipcp.o
    0x08005200   0x0000018c   Code   RO         1089    i.ipcp_addci        ipcp.o
    0x0800538c   0x00000108   Code   RO         1090    i.ipcp_cilen        ipcp.o
    0x08005494   0x00000048   Code   RO         1091    i.ipcp_clear_addrs  ipcp.o
    0x080054dc   0x0000001c   Code   RO         1092    i.ipcp_close        ipcp.o
    0x080054f8   0x00000026   Code   RO         1093    i.ipcp_down         ipcp.o
    0x0800551e   0x0000000e   Code   RO         1094    i.ipcp_finished     ipcp.o
    0x0800552c   0x000000ac   Code   RO         1095    i.ipcp_init         ipcp.o
    0x080055d8   0x00000020   Code   RO         1096    i.ipcp_input        ipcp.o
    0x080055f8   0x00000018   Code   RO         1097    i.ipcp_lowerdown    ipcp.o
    0x08005610   0x00000018   Code   RO         1098    i.ipcp_lowerup      ipcp.o
    0x08005628   0x000003e8   Code   RO         1099    i.ipcp_nakci        ipcp.o
    0x08005a10   0x00000018   Code   RO         1100    i.ipcp_open         ipcp.o
    0x08005a28   0x00000018   Code   RO         1101    i.ipcp_protrej      ipcp.o
    0x08005a40   0x00000218   Code   RO         1102    i.ipcp_rejci        ipcp.o
    0x08005c58   0x0000042a   Code   RO         1103    i.ipcp_reqci        ipcp.o
    0x08006082   0x00000002   PAD
    0x08006084   0x0000009c   Code   RO         1104    i.ipcp_resetci      ipcp.o
    0x08006120   0x00000150   Code   RO         1105    i.ipcp_up           ipcp.o
    0x08006270   0x000000c4   Code   RO         3475    i.ipfrag_free_pbuf_custom  ip_frag.o
    0x08006334   0x00000268   Code   RO         1218    i.lcp_ackci         lcp.o
    0x0800659c   0x0000017c   Code   RO         1219    i.lcp_addci         lcp.o
    0x08006718   0x000000b8   Code   RO         1220    i.lcp_cilen         lcp.o
    0x080067d0   0x00000048   Code   RO         1221    i.lcp_close         lcp.o
    0x08006818   0x0000006c   Code   RO         1222    i.lcp_down          lcp.o
    0x08006884   0x00000030   Code   RO         1223    i.lcp_echo_lowerdown  lcp.o
    0x080068b4   0x00000040   Code   RO         1224    i.lcp_echo_lowerup  lcp.o
    0x080068f4   0x000000b8   Code   RO         1225    i.lcp_extcode       lcp.o
    0x080069ac   0x0000000c   Code   RO         1226    i.lcp_finished      lcp.o
    0x080069b8   0x00000180   Code   RO         1227    i.lcp_init          lcp.o
    0x08006b38   0x00000028   Code   RO         1228    i.lcp_input         lcp.o
    0x08006b60   0x00000018   Code   RO         1229    i.lcp_lowerdown     lcp.o
    0x08006b78   0x000000ac   Code   RO         1230    i.lcp_lowerup       lcp.o
    0x08006c24   0x000004b4   Code   RO         1231    i.lcp_nakci         lcp.o
    0x080070d8   0x00000058   Code   RO         1232    i.lcp_open          lcp.o
    0x08007130   0x00000018   Code   RO         1233    i.lcp_protrej       lcp.o
    0x08007148   0x0000005c   Code   RO         1234    i.lcp_received_echo_reply  lcp.o
    0x080071a4   0x0000029c   Code   RO         1235    i.lcp_rejci         lcp.o
    0x08007440   0x00000550   Code   RO         1236    i.lcp_reqci         lcp.o
    0x08007990   0x00000064   Code   RO         1237    i.lcp_resetci       lcp.o
    0x080079f4   0x0000005c   Code   RO         1238    i.lcp_rprotrej      lcp.o
    0x08007a50   0x00000040   Code   RO         1239    i.lcp_sprotrej      lcp.o
    0x08007a90   0x0000000c   Code   RO         1240    i.lcp_starting      lcp.o
    0x08007a9c   0x00000150   Code   RO         1241    i.lcp_up            lcp.o
    0x08007bec   0x0000001c   Code   RO            6    i.linkStatusCB      main.o
    0x08007c08   0x00000090   Code   RO          648    i.link_down         auth.o
    0x08007c98   0x00000168   Code   RO          649    i.link_established  auth.o
    0x08007e00   0x00000002   Code   RO          650    i.link_required     auth.o
    0x08007e02   0x00000002   PAD
    0x08007e04   0x00000030   Code   RO          651    i.link_terminated   auth.o
    0x08007e34   0x0000001a   Code   RO         1900    i.lwip_htonl        def.o
    0x08007e4e   0x0000000c   Code   RO         1901    i.lwip_htons        def.o
    0x08007e5a   0x00000020   Code   RO         2072    i.lwip_init         init.o
    0x08007e7a   0x0000000c   Code   RO         1902    i.lwip_ntohl        def.o
    0x08007e86   0x0000000c   Code   RO         1903    i.lwip_ntohs        def.o
    0x08007e92   0x0000005e   Code   RO         3282    i.lwip_standard_chksum  inet_chksum.o
    0x08007ef0   0x00000008   Code   RO         1386    i.magic             magic.o
    0x08007ef8   0x00000002   Code   RO         1387    i.magicInit         magic.o
    0x08007efa   0x00000002   PAD
    0x08007efc   0x00000164   Code   RO            7    i.main              main.o
    0x08008060   0x0000015c   Code   RO         2131    i.mem_free          mem.o
    0x080081bc   0x0000005c   Code   RO         2132    i.mem_init          mem.o
    0x08008218   0x00000288   Code   RO         2133    i.mem_malloc        mem.o
    0x080084a0   0x000001d4   Code   RO         2134    i.mem_trim          mem.o
    0x08008674   0x0000003c   Code   RO         1561    i.nPut              ppp.o
    0x080086b0   0x0000010c   Code   RO         2233    i.netif_add         netif.o
    0x080087bc   0x00000002   Code   RO         2235    i.netif_init        netif.o
    0x080087be   0x00000002   PAD
    0x080087c0   0x00000068   Code   RO         2236    i.netif_remove      netif.o
    0x08008828   0x00000028   Code   RO         2237    i.netif_set_addr    netif.o
    0x08008850   0x00000010   Code   RO         2238    i.netif_set_default  netif.o
    0x08008860   0x0000002a   Code   RO         2239    i.netif_set_down    netif.o
    0x0800888a   0x00000010   Code   RO         2240    i.netif_set_gw      netif.o
    0x0800889a   0x00000002   PAD
    0x0800889c   0x00000084   Code   RO         2241    i.netif_set_ipaddr  netif.o
    0x08008920   0x00000010   Code   RO         2245    i.netif_set_netmask  netif.o
    0x08008930   0x0000002c   Code   RO         2247    i.netif_set_up      netif.o
    0x0800895c   0x000000b4   Code   RO          652    i.network_phase     auth.o
    0x08008a10   0x00000030   Code   RO          653    i.np_down           auth.o
    0x08008a40   0x00000044   Code   RO          654    i.np_finished       auth.o
    0x08008a84   0x00000078   Code   RO          655    i.np_up             auth.o
    0x08008afc   0x00000006   Code   RO          656    i.null_login        auth.o
    0x08008b02   0x00000002   PAD
    0x08008b04   0x00000464   Code   RO         2361    i.pbuf_alloc        pbuf.o
    0x08008f68   0x00000104   Code   RO         2362    i.pbuf_alloced_custom  pbuf.o
    0x0800906c   0x00000154   Code   RO         2363    i.pbuf_cat          pbuf.o
    0x080091c0   0x0000001a   Code   RO         2364    i.pbuf_chain        pbuf.o
    0x080091da   0x00000012   Code   RO         2365    i.pbuf_clen         pbuf.o
    0x080091ec   0x0000014c   Code   RO         2368    i.pbuf_copy_partial  pbuf.o
    0x08009338   0x000001cc   Code   RO         2370    i.pbuf_free         pbuf.o
    0x08009504   0x0000015c   Code   RO         2372    i.pbuf_header       pbuf.o
    0x08009660   0x000001e8   Code   RO         2375    i.pbuf_realloc      pbuf.o
    0x08009848   0x0000000a   Code   RO         2376    i.pbuf_ref          pbuf.o
    0x08009852   0x00000002   PAD
    0x08009854   0x0000000c   Code   RO          657    i.plogout           auth.o
    0x08009860   0x000001cc   Code   RO         2135    i.plug_holes        mem.o
    0x08009a2c   0x00000074   Code   RO         1562    i.pppAppend         ppp.o
    0x08009aa0   0x0000000c   Code   RO         1564    i.pppDrop           ppp.o
    0x08009aac   0x0000002a   Code   RO         1565    i.pppFreeCurrentInputPacket  ppp.o
    0x08009ad6   0x00000002   PAD
    0x08009ad8   0x0000007c   Code   RO         1567    i.pppIOCtl          ppp.o
    0x08009b54   0x000001e8   Code   RO         1568    i.pppInProc         ppp.o
    0x08009d3c   0x00000078   Code   RO         1569    i.pppInit           ppp.o
    0x08009db4   0x000001c8   Code   RO         1570    i.pppInput          ppp.o
    0x08009f7c   0x00000002   Code   RO         1571    i.pppLinkDown       ppp.o
    0x08009f7e   0x00000002   PAD
    0x08009f80   0x0000003c   Code   RO         1572    i.pppLinkTerminated  ppp.o
    0x08009fbc   0x00000030   Code   RO         1573    i.pppMTU            ppp.o
    0x08009fec   0x00000088   Code   RO         1574    i.pppOverSerialOpen  ppp.o
    0x0800a074   0x000000cc   Code   RO         1575    i.pppSetAuth        ppp.o
    0x0800a140   0x0000004a   Code   RO         1577    i.pppSingleBuf      ppp.o
    0x0800a18a   0x00000012   Code   RO         1578    i.pppStart          ppp.o
    0x0800a19c   0x000000dc   Code   RO         1580    i.pppWrite          ppp.o
    0x0800a278   0x0000003c   Code   RO         1581    i.ppp_recv_config   ppp.o
    0x0800a2b4   0x00000044   Code   RO         1582    i.ppp_send_config   ppp.o
    0x0800a2f8   0x00000028   Code   RO         1585    i.ppp_set_xaccm     ppp.o
    0x0800a320   0x0000002c   Code   RO         1586    i.pppifNetifInit    ppp.o
    0x0800a34c   0x000001c0   Code   RO         1587    i.pppifOutput       ppp.o
    0x0800a50c   0x00000030   Code   RO         1588    i.pppos_input       ppp.o
    0x0800a53c   0x00000074   Code   RO         2492    i.raw_input         raw.o
    0x0800a5b0   0x00000050   Code   RO         1589    i.sifaddr           ppp.o
    0x0800a600   0x00000040   Code   RO         1590    i.sifdefaultroute   ppp.o
    0x0800a640   0x00000054   Code   RO         1591    i.sifdown           ppp.o
    0x0800a694   0x00000006   Code   RO         1592    i.sifnpmode         ppp.o
    0x0800a69a   0x00000002   PAD
    0x0800a69c   0x00000080   Code   RO         1593    i.sifup             ppp.o
    0x0800a71c   0x00000008   Code   RO         1594    i.sifvjcomp         ppp.o
    0x0800a724   0x0000007c   Code   RO         3549    i.sio_write         sio.o
    0x0800a7a0   0x00000002   Code   RO         2558    i.stats_init        stats.o
    0x0800a7a2   0x00000002   PAD
    0x0800a7a4   0x0000000c   Code   RO         3606    i.sys_jiffies       sys_arch.o
    0x0800a7b0   0x0000000c   Code   RO         3607    i.sys_now           sys_arch.o
    0x0800a7bc   0x0000014c   Code   RO         3031    i.sys_timeout       timers.o
    0x0800a908   0x00000030   Code   RO         3032    i.sys_timeouts_init  timers.o
    0x0800a938   0x0000005c   Code   RO         3033    i.sys_untimeout     timers.o
    0x0800a994   0x00000130   Code   RO         2609    i.tcp_abandon       tcp.o
    0x0800aac4   0x0000000e   Code   RO         2610    i.tcp_abort         tcp.o
    0x0800aad2   0x00000002   PAD
    0x0800aad4   0x000000d8   Code   RO         2613    i.tcp_alloc         tcp.o
    0x0800abac   0x00000120   Code   RO         2615    i.tcp_bind          tcp.o
    0x0800accc   0x0000001c   Code   RO         2616    i.tcp_close         tcp.o
    0x0800ace8   0x00000244   Code   RO         2617    i.tcp_close_shutdown  tcp.o
    0x0800af2c   0x000001e8   Code   RO         2618    i.tcp_connect       tcp.o
    0x0800b114   0x000000d4   Code   RO         2917    i.tcp_create_segment  tcp_out.o
    0x0800b1e8   0x0000002e   Code   RO         2620    i.tcp_eff_send_mss  tcp.o
    0x0800b216   0x00000002   PAD
    0x0800b218   0x00000308   Code   RO         2918    i.tcp_enqueue_flags  tcp_out.o
    0x0800b520   0x00000080   Code   RO         2622    i.tcp_fasttmr       tcp.o
    0x0800b5a0   0x00000002   Code   RO         2623    i.tcp_init          tcp.o
    0x0800b5a2   0x00000002   PAD
    0x0800b5a4   0x00000794   Code   RO         2854    i.tcp_input         tcp_in.o
    0x0800bd38   0x0000007c   Code   RO         2919    i.tcp_keepalive     tcp_out.o
    0x0800bdb4   0x00000058   Code   RO         2624    i.tcp_kill_prio     tcp.o
    0x0800be0c   0x00000040   Code   RO         2625    i.tcp_kill_timewait  tcp.o
    0x0800be4c   0x00000168   Code   RO         2855    i.tcp_listen_input  tcp_in.o
    0x0800bfb4   0x0000000a   Code   RO         2627    i.tcp_new           tcp.o
    0x0800bfbe   0x00000002   PAD
    0x0800bfc0   0x00000068   Code   RO         2628    i.tcp_new_port      tcp.o
    0x0800c028   0x0000001c   Code   RO         2629    i.tcp_next_iss      tcp.o
    0x0800c044   0x0000028c   Code   RO         2920    i.tcp_output        tcp_out.o
    0x0800c2d0   0x00000118   Code   RO         2921    i.tcp_output_alloc_header  tcp_out.o
    0x0800c3e8   0x00000104   Code   RO         2922    i.tcp_output_segment  tcp_out.o
    0x0800c4ec   0x000000d0   Code   RO         2856    i.tcp_parseopt      tcp_in.o
    0x0800c5bc   0x000000f8   Code   RO         2923    i.tcp_pbuf_prealloc  tcp_out.o
    0x0800c6b4   0x00000160   Code   RO         2630    i.tcp_pcb_purge     tcp.o
    0x0800c814   0x00000148   Code   RO         2631    i.tcp_pcb_remove    tcp.o
    0x0800c95c   0x000006a8   Code   RO         2857    i.tcp_process       tcp_in.o
    0x0800d004   0x00000094   Code   RO         2633    i.tcp_process_refused_data  tcp.o
    0x0800d098   0x00000984   Code   RO         2858    i.tcp_receive       tcp_in.o
    0x0800da1c   0x0000002e   Code   RO         2635    i.tcp_recv_null     tcp.o
    0x0800da4a   0x00000002   PAD
    0x0800da4c   0x00000124   Code   RO         2636    i.tcp_recved        tcp.o
    0x0800db70   0x0000005a   Code   RO         2924    i.tcp_rexmit        tcp_out.o
    0x0800dbca   0x00000078   Code   RO         2925    i.tcp_rexmit_fast   tcp_out.o
    0x0800dc42   0x0000003a   Code   RO         2926    i.tcp_rexmit_rto    tcp_out.o
    0x0800dc7c   0x00000144   Code   RO         2927    i.tcp_rst           tcp_out.o
    0x0800ddc0   0x00000018   Code   RO         2637    i.tcp_seg_free      tcp.o
    0x0800ddd8   0x00000018   Code   RO         2638    i.tcp_segs_free     tcp.o
    0x0800ddf0   0x0000006e   Code   RO         2928    i.tcp_send_empty_ack  tcp_out.o
    0x0800de5e   0x0000004a   Code   RO         2929    i.tcp_send_fin      tcp_out.o
    0x0800dea8   0x00000624   Code   RO         2642    i.tcp_slowtmr       tcp.o
    0x0800e4cc   0x00000038   Code   RO         3034    i.tcp_timer_needed  timers.o
    0x0800e504   0x000000ac   Code   RO         2859    i.tcp_timewait_input  tcp_in.o
    0x0800e5b0   0x00000024   Code   RO         2643    i.tcp_tmr           tcp.o
    0x0800e5d4   0x000000d4   Code   RO         2644    i.tcp_update_rcv_ann_wnd  tcp.o
    0x0800e6a8   0x00000788   Code   RO         2930    i.tcp_write         tcp_out.o
    0x0800ee30   0x000001a0   Code   RO         2931    i.tcp_write_checks  tcp_out.o
    0x0800efd0   0x000000e0   Code   RO         2932    i.tcp_zero_window_probe  tcp_out.o
    0x0800f0b0   0x00000038   Code   RO         3035    i.tcpip_tcp_timer   timers.o
    0x0800f0e8   0x0000010c   Code   RO         3107    i.udp_bind          udp.o
    0x0800f1f4   0x00000068   Code   RO         3108    i.udp_connect       udp.o
    0x0800f25c   0x00000002   Code   RO         3110    i.udp_init          udp.o
    0x0800f25e   0x00000002   PAD
    0x0800f260   0x00000288   Code   RO         3111    i.udp_input         udp.o
    0x0800f4e8   0x00000024   Code   RO         3112    i.udp_new           udp.o
    0x0800f50c   0x00000058   Code   RO         3113    i.udp_new_port      udp.o
    0x0800f564   0x00000006   Code   RO         3114    i.udp_recv          udp.o
    0x0800f56a   0x00000002   PAD
    0x0800f56c   0x0000004c   Code   RO         3117    i.udp_sendto        udp.o
    0x0800f5b8   0x000001d0   Code   RO         3118    i.udp_sendto_if     udp.o
    0x0800f788   0x00000054   Code   RO         1459    i.upap_authpeer     pap.o
    0x0800f7dc   0x0000004c   Code   RO         1460    i.upap_authwithpeer  pap.o
    0x0800f828   0x00000030   Code   RO         1461    i.upap_init         pap.o
    0x0800f858   0x0000008c   Code   RO         1462    i.upap_input        pap.o
    0x0800f8e4   0x00000044   Code   RO         1463    i.upap_lowerdown    pap.o
    0x0800f928   0x00000068   Code   RO         1464    i.upap_lowerup      pap.o
    0x0800f990   0x0000003c   Code   RO         1465    i.upap_protrej      pap.o
    0x0800f9cc   0x0000004c   Code   RO         1466    i.upap_rauthack     pap.o
    0x0800fa18   0x0000003c   Code   RO         1467    i.upap_rauthnak     pap.o
    0x0800fa54   0x000000e0   Code   RO         1468    i.upap_rauthreq     pap.o
    0x0800fb34   0x00000020   Code   RO         1469    i.upap_reqtimeout   pap.o
    0x0800fb54   0x000000c0   Code   RO         1470    i.upap_sauthreq     pap.o
    0x0800fc14   0x00000078   Code   RO         1471    i.upap_sresp        pap.o
    0x0800fc8c   0x00000030   Code   RO         1472    i.upap_timeout      pap.o
    0x0800fcbc   0x000000a8   Code   RO          369    i.usart1_init       usart1.o
    0x0800fd64   0x000000a0   Code   RO          431    i.usart2_init       usart2.o
    0x0800fe04   0x0000001f   Data   RO            8    .constdata          main.o
    0x0800fe23   0x00000001   PAD
    0x0800fe24   0x00000200   Data   RO         1596    .constdata          ppp.o
    0x08010024   0x00000014   Data   RO         2190    .constdata          memp.o
    0x08010038   0x00000050   Data   RO         2645    .constdata          tcp.o
    0x08010088   0x00000008   Data   RO         3407    .constdata          ip_addr.o
    0x08010090   0x00000005   Data   RO          847    .conststring        chap.o
    0x08010095   0x00000003   PAD
    0x08010098   0x00000005   Data   RO         1107    .conststring        ipcp.o
    0x0801009d   0x00000003   PAD
    0x080100a0   0x00000004   Data   RO         1243    .conststring        lcp.o
    0x080100a4   0x00000004   Data   RO         1474    .conststring        pap.o
    0x080100a8   0x000000b9   Data   RO         2646    .conststring        tcp.o
    0x08010161   0x00000003   PAD
    0x08010164   0x00000055   Data   RO         2933    .conststring        tcp_out.o
    0x080101b9   0x00000003   PAD
    0x080101bc   0x00000020   Data   RO         5219    Region$$Table       anon$$obj.o


    Execution Region RW_IRAM1 (Base: 0x20000000, Size: 0x000056c8, Max: 0x0000c000, ABSOLUTE, COMPRESSED[0x00000178])

    Base Addr    Size         Type   Attr      Idx    E Section Name        Object

    0x20000000   0x0000009c   Data   RW            9    .data               main.o
    0x2000009c   0x00000010   Data   RW          300    .data               timer.o
    0x200000ac   0x00000010   Data   RW          371    .data               usart1.o
    0x200000bc   0x0000000c   Data   RW          433    .data               usart2.o
    0x200000c8   0x00000001   Data   RW          481    .data               key.o
    0x200000c9   0x00000001   PAD
    0x200000ca   0x00000004   Data   RW          516    .data               delay.o
    0x200000ce   0x00000002   PAD
    0x200000d0   0x0000001c   Data   RW          659    .data               auth.o
    0x200000ec   0x00000028   Data   RW          848    .data               chap.o
    0x20000114   0x00000004   Data   RW          992    .data               fsm.o
    0x20000118   0x0000006c   Data   RW         1108    .data               ipcp.o
    0x20000184   0x00000080   Data   RW         1244    .data               lcp.o
    0x20000204   0x00000040   Data   RW         1420    .data               md5.o
    0x20000244   0x00000028   Data   RW         1475    .data               pap.o
    0x2000026c   0x00000020   Data   RW         1597    .data               ppp.o
    0x2000028c   0x0000000c   Data   RW         1847    .data               randm.o
    0x20000298   0x00000014   Data   RW         1974    .data               dns.o
    0x200002ac   0x0000000c   Data   RW         2137    .data               mem.o
    0x200002b8   0x00000009   Data   RW         2248    .data               netif.o
    0x200002c1   0x00000003   PAD
    0x200002c4   0x00000004   Data   RW         2498    .data               raw.o
    0x200002c8   0x00000024   Data   RW         2647    .data               tcp.o
    0x200002ec   0x00000020   Data   RW         2861    .data               tcp_in.o
    0x2000030c   0x0000000c   Data   RW         3036    .data               timers.o
    0x20000318   0x00000008   Data   RW         3119    .data               udp.o
    0x20000320   0x00000012   Data   RW         3339    .data               ip.o
    0x20000332   0x00000002   PAD
    0x20000334   0x00000006   Data   RW         3476    .data               ip_frag.o
    0x2000033a   0x00000014   Data   RW         3964    .data               stm32f10x_rcc.o
    0x2000034e   0x00000002   PAD
    0x20000350   0x00000004   Data   RW         4899    .data               mc_w.l(rand.o)
    0x20000354   0x00000004   PAD
    0x20000358   0x00000c80   Zero   RW          432    .bss                usart2.o
    0x20000fd8   0x00000100   Zero   RW          658    .bss                auth.o
    0x200010d8   0x000000b0   Zero   RW          846    .bss                chap.o
    0x20001188   0x000000b8   Zero   RW         1106    .bss                ipcp.o
    0x20001240   0x00000694   Zero   RW         1242    .bss                lcp.o
    0x200018d4   0x00000030   Zero   RW         1473    .bss                pap.o
    0x20001904   0x00000abc   Zero   RW         1595    .bss                ppp.o
    0x200023c0   0x00000663   Zero   RW         1973    .bss                dns.o
    0x20002a23   0x00002814   Zero   RW         2136    .bss                mem.o
    0x20005237   0x00000001   PAD
    0x20005238   0x00000078   Zero   RW         2559    .bss                stats.o
    0x200052b0   0x00000014   Zero   RW         2860    .bss                tcp_in.o
    0x200052c4   0x00000004   PAD
    0x200052c8   0x00000400   Zero   RW         3636    STACK               startup_stm32f10x_hd.o


==============================================================================

Image component sizes


      Code (inc. data)   RO Data    RW Data    ZI Data      Debug   Object Name

      1932        438          0         28        256      24683   auth.o
      2224        236          5         40        176      14434   chap.o
        62          0          0          0          0       1972   def.o
       124         12          0          4          0       1120   delay.o
      1644        374          0         20       1635      15743   dns.o
      2350        136          0          4          0      13000   fsm.o
         0          0          0          0          0       3808   inet.o
       284          0          0          0          0       4391   inet_chksum.o
        32          0          0          0          0       1156   init.o
      1568        370          0         18          0       8248   ip.o
       562         98          8          0          0       8882   ip_addr.o
      3104        922          0          6          0      10084   ip_frag.o
      4710        250          5        108        184      20279   ipcp.o
       260         24          0          1          0       1030   key.o
      6736        438          4        128       1684      27993   lcp.o
        80          8          0          0          0        463   led.o
        10          0          0          0          0        876   magic.o
       472         62         31        156          0     275633   main.o
      2392        268          0         64          0       4757   md5.o
      2016        778          0         12      10260       5041   mem.o
         0          0         20          0          0       1105   memp.o
       132         22          0          0          0       1683   misc.o
       680        128          0          9          0      17435   netif.o
       318         34          0          0          0       2362   nvic.o
      1332         82          4         40         48      10647   pap.o
      3406       1342          0          0          0       8815   pbuf.o
      3468        300        512         32       2748      26318   ppp.o
       124         24          0         12          0       1636   randm.o
       116         14          0          4          0       1444   raw.o
       124          8          0          0          0       1440   sio.o
        36          8        304          0       1024        800   startup_stm32f10x_hd.o
         2          0          0          0        120       3194   stats.o
       216         22          0          0          0       2847   stm32f10x_exti.o
       282          0          0          0          0       2643   stm32f10x_gpio.o
       340         44          0         20          0       5816   stm32f10x_rcc.o
       246         42          0          0          0       3806   stm32f10x_tim.o
       470         28          0          0          0       4509   stm32f10x_usart.o
        24         12          0          0          0        876   sys_arch.o
       328         28          0          0          0       1925   system_stm32f10x.o
      5422       1578        265         36          0      27104   tcp.o
      6820       1168          0         32         20      16963   tcp_in.o
      5896       1498         85          0          0      14991   tcp_out.o
       564         70          0         16          0       2805   timer.o
       648        210          0         12          0       5373   timers.o
      1692        348          0          8          0       8829   udp.o
       198         14          0         16          0       3717   usart1.o
       304         30          0         12       3200       2800   usart2.o

    ----------------------------------------------------------------------
     63812      11468       1288        848      21360     625476   Object Totals
         0          0         32          0          0          0   (incl. Generated)
        62          0         13         10          5          0   (incl. Padding)

    ----------------------------------------------------------------------

      Code (inc. data)   RO Data    RW Data    ZI Data      Debug   Library Member Name

        86          0          0          0          0          0   __dczerorl2.o
         0          0          0          0          0          0   entry.o
         0          0          0          0          0          0   entry10a.o
         0          0          0          0          0          0   entry11a.o
         8          4          0          0          0          0   entry2.o
         4          0          0          0          0          0   entry5.o
         0          0          0          0          0          0   entry7b.o
         0          0          0          0          0          0   entry8b.o
         8          4          0          0          0          0   entry9a.o
        30          0          0          0          0          0   handlers.o
        36          8          0          0          0         68   init.o
        26          0          0          0          0         80   memcmp.o
        36          0          0          0          0         68   memcpya.o
        36          0          0          0          0        108   memseta.o
       472         14          0          0          0        184   printf3.o
        36         10          0          4          0        136   rand.o
        28          0          0          0          0         76   strcmp.o
        18          0          0          0          0         68   strcpy.o
        14          0          0          0          0         68   strlen.o
        24          0          0          0          0         76   strncpy.o
        44          0          0          0          0         80   uidiv.o

    ----------------------------------------------------------------------
       912         40          0          4          4       1012   Library Totals
         6          0          0          0          4          0   (incl. Padding)

    ----------------------------------------------------------------------

      Code (inc. data)   RO Data    RW Data    ZI Data      Debug   Library Name

       906         40          0          4          0       1012   mc_w.l

    ----------------------------------------------------------------------
       912         40          0          4          4       1012   Library Totals

    ----------------------------------------------------------------------

==============================================================================


      Code (inc. data)   RO Data    RW Data    ZI Data      Debug   

     64724      11508       1288        852      21364     608884   Grand Totals
     64724      11508       1288        376      21364     608884   ELF Image Totals (compressed)
     64724      11508       1288        376          0          0   ROM Totals

==============================================================================

    Total RO  Size (Code + RO Data)                66012 (  64.46kB)
    Total RW  Size (RW Data + ZI Data)             22216 (  21.70kB)
    Total ROM Size (Code + RO Data + RW Data)      66388 (  64.83kB)

==============================================================================

